BL51 BANKED LINKER/LOCATER V6.22                                                        05/27/2019  15:40:45  PAGE 1


BL51 BANKED LINKER/LOCATER V6.22, INVOKED BY:
C:\KEIL_V5\C51\BIN\BL51.EXE .\output\delay.obj, .\output\main.obj, .\output\ds1302.obj, .\output\IIC.obj, .\output\ds18b
>> 20.obj, .\output\hb.obj, .\output\yuyin.obj, .\output\alarm.obj, .\output\switch_screen.obj, .\output\main2233.obj TO
>>  .\output\DS18b20 PRINT (.\output\DS18b20.m51) RAMSIZE (256)


MEMORY MODEL: LARGE


INPUT MODULES INCLUDED:
  .\output\delay.obj (DELAY)
  .\output\main.obj (MAIN)
  .\output\ds1302.obj (DS1302)
  .\output\IIC.obj (IIC)
  .\output\ds18b20.obj (DS18B20)
  .\output\hb.obj (HB)
  .\output\yuyin.obj (YUYIN)
  .\output\alarm.obj (ALARM)
  .\output\switch_screen.obj (SWITCH_SCREEN)
  .\output\main2233.obj (MAIN2233)
  C:\KEIL_V5\C51\LIB\C51L.LIB (?C_STARTUP)
  C:\KEIL_V5\C51\LIB\C51L.LIB (?C?COPY)
  C:\KEIL_V5\C51\LIB\C51L.LIB (?C?CLDPTR)
  C:\KEIL_V5\C51\LIB\C51L.LIB (?C?CLDOPTR)
  C:\KEIL_V5\C51\LIB\C51L.LIB (?C?CILDPTR)
  C:\KEIL_V5\C51\LIB\C51L.LIB (?C?CILDOPTR)
  C:\KEIL_V5\C51\LIB\C51L.LIB (?C?CSTPTR)
  C:\KEIL_V5\C51\LIB\C51L.LIB (?C?CSTOPTR)
  C:\KEIL_V5\C51\LIB\C51L.LIB (?C?IMUL)
  C:\KEIL_V5\C51\LIB\C51L.LIB (?C?UIDIV)
  C:\KEIL_V5\C51\LIB\C51L.LIB (?C?IILDX)
  C:\KEIL_V5\C51\LIB\C51L.LIB (?C?OFFXADD)
  C:\KEIL_V5\C51\LIB\C51L.LIB (?C?PLDXDATA)
  C:\KEIL_V5\C51\LIB\C51L.LIB (?C?PLDIXDATA)
  C:\KEIL_V5\C51\LIB\C51L.LIB (?C?PSTXDATA)
  C:\KEIL_V5\C51\LIB\C51L.LIB (?C?CCASE)
  C:\KEIL_V5\C51\LIB\C51L.LIB (STRSTR)
  C:\KEIL_V5\C51\LIB\C51L.LIB (?C_INIT)


LINK MAP OF MODULE:  .\output\DS18b20 (DELAY)


            TYPE    BASE      LENGTH    RELOCATION   SEGMENT NAME
            -----------------------------------------------------

            * * * * * * *   D A T A   M E M O R Y   * * * * * * *
            REG     0000H     0008H     ABSOLUTE     "REG BANK 0"
            DATA    0008H     0012H     UNIT         ?DT?GET_CLINET?MAIN2233
                    001AH     0006H                  *** GAP ***
            BIT     0020H.0   0000H.4   UNIT         ?BI?MAIN
            BIT     0020H.4   0000H.3   UNIT         _BIT_GROUP_
            BIT     0020H.7   0000H.2   UNIT         ?BI?HB
                    0021H.1   0000H.7                *** GAP ***
            DATA    0022H     004FH     UNIT         ?DT?MAIN2233
            IDATA   0071H     0001H     UNIT         ?STACK

            * * * * * * *  X D A T A   M E M O R Y  * * * * * * *
BL51 BANKED LINKER/LOCATER V6.22                                                      05/27/2019  15:40:45  PAGE 2


            XDATA   0000H     0054H     UNIT         ?XD?MAIN
            XDATA   0054H     002CH     UNIT         _XDATA_GROUP_
            XDATA   0080H     000CH     UNIT         ?XD?_STRSTR?STRSTR
            XDATA   008CH     0006H     UNIT         ?XD?_HB_SHOW_BIG_TEMP?HB
            XDATA   0092H     0006H     UNIT         ?XD?SHOW_DATE?HB
            XDATA   0098H     0006H     UNIT         ?XD?HB_SHOW_BIG_WEEK?HB
            XDATA   009EH     0004H     UNIT         ?XD?YUYIN
            XDATA   00A2H     0003H     UNIT         ?XD?_SEND_STR?MAIN2233
            XDATA   00A5H     0003H     UNIT         ?XD?_STRING_TO_UCHAR?MAIN2233
            XDATA   00A8H     0002H     UNIT         ?XD?GET_CLINET?MAIN2233
            XDATA   00AAH     0002H     UNIT         ?XD?MAIN2233

            * * * * * * *   C O D E   M E M O R Y   * * * * * * *
            CODE    0000H     0003H     ABSOLUTE     
            CODE    0003H     0020H     UNIT         ?PR?CLEAN_ALARM_ALL?HB
            CODE    0023H     0003H     ABSOLUTE     
            CODE    0026H     204DH     UNIT         ?CO?HB
            CODE    2073H     117AH     UNIT         ?PR?BROADCAST_MORNING?YUYIN
            CODE    31EDH     0C0BH     UNIT         ?PR?GET_CLINET?MAIN2233
            CODE    3DF8H     0802H     UNIT         ?PR?ADJUST_TIME?DS1302
            CODE    45FAH     07A7H     UNIT         ?PR?ALARM_FUNCTION?ALARM
            CODE    4DA1H     0461H     UNIT         ?PR?SHOW_FESTIVAL?HB
            CODE    5202H     042AH     UNIT         ?PR?CHECK_ALARM_TIME?YUYIN
            CODE    562CH     0397H     UNIT         ?PR?_SHOW_LUNAR?HB
            CODE    59C3H     0326H     UNIT         ?PR?_SHOW_CHOOSE_MUSIC?HB
            CODE    5CE9H     02D0H     UNIT         ?PR?SUN_TO_LUNAR?HB
            CODE    5FB9H     02C0H     UNIT         ?PR?MAIN?MAIN
            CODE    6279H     02AFH     UNIT         ?PR?SHOW_JIEQI?HB
            CODE    6528H     029DH     UNIT         ?C?LIB_CODE
            CODE    67C5H     0226H     UNIT         ?PR?_JUDGE_LEAP_MONTH?HB
            CODE    69EBH     0224H     UNIT         ?PR?CAL_FESTIVAL?HB
            CODE    6C0FH     0201H     UNIT         ?PR?_ALARM_WRITE_IIC?ALARM
            CODE    6E10H     01EAH     UNIT         ?PR?_BROADCAST_TEMP?YUYIN
            CODE    6FFAH     01BDH     UNIT         ?PR?SWITCH_SCREEN?SWITCH_SCREEN
            CODE    71B7H     0196H     UNIT         ?PR?SHOW_TIME_ONLY?HB
            CODE    734DH     0191H     UNIT         ?PR?HB_SHOW_BIG_SEC?HB
            CODE    74DEH     014FH     UNIT         ?PR?_BROADCAST?YUYIN
            CODE    762DH     0142H     UNIT         ?PR?_GET_MOON_DAY?HB
            CODE    776FH     0132H     UNIT         ?PR?ALARM_READ_IIC?ALARM
            CODE    78A1H     0131H     UNIT         ?PR?_SHOW_VOLUME?HB
            CODE    79D2H     012DH     UNIT         ?PR?SHOW_TIME_SCREEN?SWITCH_SCREEN
            CODE    7AFFH     012AH     UNIT         ?PR?CALCULATE_DAY?HB
            CODE    7C29H     010FH     UNIT         ?PR?ADD_SUB_DATE?DS1302
            CODE    7D38H     00FFH     UNIT         ?PR?CAL_JIEQI?HB
            CODE    7E37H     00F5H     UNIT         ?PR?WELCOME_INIT?HB
            CODE    7F2CH     00E3H     UNIT         ?PR?_HB_SHOW_TEMP?HB
            CODE    800FH     00DBH     UNIT         ?PR?_HB_SHOW_BIG_TEMP?HB
            CODE    80EAH     00DAH     UNIT         ?PR?_SHOW_ALARM_DAY?HB
            CODE    81C4H     00D2H     UNIT         ?PR?CHOOSE_MUSIC?YUYIN
            CODE    8296H     00D1H     UNIT         ?PR?HB_SHOW_TIME?HB
            CODE    8367H     00CAH     UNIT         ?PR?SHOW_LUNAR_FESTIVAL?HB
            CODE    8431H     00C9H     UNIT         ?PR?ADJUST_VOLUME?YUYIN
            CODE    84FAH     00C2H     UNIT         ?PR?CALCULATE_DAY_NUM?HB
            CODE    85BCH     00BFH     UNIT         ?PR?_STRSTR?STRSTR
            CODE    867BH     009FH     UNIT         ?PR?HB_SHOW_BIG_DATE_ONLY?HB
            CODE    871AH     009CH     UNIT         ?PR?ESP8266_SERVER?MAIN2233
            CODE    87B6H     008EH     UNIT         ?PR?_START_BLINK_WEEK?HB
BL51 BANKED LINKER/LOCATER V6.22                                                      05/27/2019  15:40:45  PAGE 3


            CODE    8844H     008DH     UNIT         ?C_INITSEG
            CODE    88D1H     008CH     UNIT         ?C_C51STARTUP
            CODE    895DH     0089H     UNIT         ?PR?_DISPLAY_BMP?HB
            CODE    89E6H     007FH     UNIT         ?PR?HB_SHOW_HOUR?HB
            CODE    8A65H     007DH     UNIT         ?PR?DRAW_FRAME?HB
            CODE    8AE2H     007DH     UNIT         ?PR?HB_SHOW_SEC?HB
            CODE    8B5FH     0079H     UNIT         ?PR?HB_SHOW_BIG_YEAR?HB
            CODE    8BD8H     0079H     UNIT         ?PR?HB_SHOW_BIG_MONTH?HB
            CODE    8C51H     0079H     UNIT         ?PR?HB_SHOW_BIG_DATE?HB
            CODE    8CCAH     0079H     UNIT         ?PR?HB_SHOW_BIG_HOUR?HB
            CODE    8D43H     0079H     UNIT         ?PR?HB_SHOW_BIG_MIN?HB
            CODE    8DBCH     006BH     UNIT         ?PR?_STOP_BLINK_WEEK?HB
            CODE    8E27H     0062H     UNIT         ?CO?MAIN2233
            CODE    8E89H     0060H     UNIT         ?PR?HB_SHOW_MIN?HB
            CODE    8EE9H     005EH     UNIT         ?PR?SET_TIME?DS1302
            CODE    8F47H     005EH     UNIT         ?PR?ADD_SUB_YEAR?DS1302
            CODE    8FA5H     005EH     UNIT         ?PR?CLEAN_ALL?HB
            CODE    9003H     005DH     UNIT         ?PR?_CLEAN_ALARM_DAY?HB
            CODE    9060H     005BH     UNIT         ?PR?ADD_SUB_MONTH?DS1302
            CODE    90BBH     005BH     UNIT         ?PR?HB_SHOW_BIG_TIME_ONLY?HB
            CODE    9116H     0057H     UNIT         ?PR?ADD_SUB_HOUR?DS1302
            CODE    916DH     0057H     UNIT         ?PR?ADD_SUB_MIN?DS1302
            CODE    91C4H     0055H     UNIT         ?PR?SHOW_DATE?HB
            CODE    9219H     0050H     UNIT         ?PR?_SENDDATA?YUYIN
            CODE    9269H     004FH     UNIT         ?PR?CONVER_JIEQI?HB
            CODE    92B8H     004EH     UNIT         ?PR?_READ_TEMPER?DS18B20
            CODE    9306H     004BH     UNIT         ?PR?_SING_WRITE_BYTE?DS18B20
            CODE    9351H     0045H     UNIT         ?PR?HB_SHOW_YEAR?HB
            CODE    9396H     003EH     UNIT         ?PR?CHECK_NOW_TIME?YUYIN
            CODE    93D4H     003CH     UNIT         ?PR?VOLUME_CONTROL?YUYIN
            CODE    9410H     003BH     UNIT         ?PR?_DISPLAY_STRCHAR?HB
            CODE    944BH     0039H     UNIT         ?PR?READ_TIME?DS1302
            CODE    9484H     0037H     UNIT         ?PR?MASTER_RESET?DS18B20
            CODE    94BBH     0035H     UNIT         ?PR?_SHOW_ALARM_ALL?HB
            CODE    94F0H     0033H     UNIT         ?PR?READ_BYTE?DS1302
            CODE    9523H     0031H     UNIT         ?PR?SING_READ_BYTE?DS18B20
            CODE    9554H     0031H     UNIT         ?PR?_DISPLAY_LIN?HB
            CODE    9585H     0031H     UNIT         ?PR?HB_SHOW_MONTH?HB
            CODE    95B6H     0031H     UNIT         ?PR?HB_SHOW_DATE?HB
            CODE    95E7H     0031H     UNIT         ?PR?_WELCOME_MUSIC?YUYIN
            CODE    9618H     0030H     UNIT         ?PR?ADD_SUB_HOUR_ALARM?DS1302
            CODE    9648H     0030H     UNIT         ?PR?ADD_SUB_MIN_ALARM?DS1302
            CODE    9678H     002EH     UNIT         ?PR?_INT_TO_STR?HB
            CODE    96A6H     002DH     UNIT         ?PR?_STRING_TO_UCHAR?MAIN2233
            CODE    96D3H     002DH     UNIT         ?PR?UARTINTERRUPT?MAIN2233
            CODE    9700H     002BH     UNIT         ?PR?_SEND_STR?MAIN2233
            CODE    972BH     0027H     UNIT         ?PR?_IIC_WRITE_BYTE?IIC
            CODE    9752H     0026H     UNIT         ?PR?WIFI_INIT?MAIN2233
            CODE    9778H     0025H     UNIT         ?PR?HB_INIT?HB
            CODE    979DH     0024H     UNIT         ?PR?IIC_READ_BYTE?IIC
            CODE    97C1H     0023H     UNIT         ?PR?_WRITE_DS1302?DS1302
            CODE    97E4H     0023H     UNIT         ?PR?ACK?IIC
            CODE    9807H     0023H     UNIT         ?PR?START_BLINK_BIG_HOUR?HB
            CODE    982AH     0023H     UNIT         ?PR?START_BLINK_BIG_MIN?HB
            CODE    984DH     0023H     UNIT         ?PR?STOP_BLINK_BIG_MIN?HB
            CODE    9870H     0023H     UNIT         ?PR?START_BLINK_ALARM?HB
            CODE    9893H     0023H     UNIT         ?PR?STOP_BLINK_ALARM?HB
BL51 BANKED LINKER/LOCATER V6.22                                                      05/27/2019  15:40:45  PAGE 4


            CODE    98B6H     0023H     UNIT         ?PR?_DELAYMS?MAIN2233
            CODE    98D9H     0022H     UNIT         ?PR?_SEND?HB
            CODE    98FBH     0022H     UNIT         ?PR?STOP_BLINK_BIG_HOUR?HB
            CODE    991DH     0022H     UNIT         ?PR?CLEAN_FESTIVEL?HB
            CODE    993FH     0021H     UNIT         ?PR?CLEAN_SET?HB
            CODE    9960H     0021H     UNIT         ?PR?SET_STOP_BLINK?HB
            CODE    9981H     0021H     UNIT         ?PR?SET_START_BLINK?HB
            CODE    99A2H     001FH     UNIT         ?PR?_READ_IIC?IIC
            CODE    99C1H     001FH     UNIT         ?PR?_HEX_TO_BCD?HB
            CODE    99E0H     001EH     UNIT         ?PR?_WRITE_BYTE?DS1302
            CODE    99FEH     001EH     UNIT         ?PR?START_BLINK_BIG_YEAR?HB
            CODE    9A1CH     001EH     UNIT         ?PR?START_BLINK_BIG_MONTH?HB
            CODE    9A3AH     001EH     UNIT         ?PR?START_BLINK_BIG_DATE?HB
            CODE    9A58H     001EH     UNIT         ?PR?START_BLINK_MIN?HB
            CODE    9A76H     001EH     UNIT         ?PR?MUSIC_SCREEN?YUYIN
            CODE    9A94H     001DH     UNIT         ?PR?_DELAY_1MS?HB
            CODE    9AB1H     001DH     UNIT         ?PR?STOP_BLINK_BIG_YEAR?HB
            CODE    9ACEH     001DH     UNIT         ?PR?STOP_BLINK_BIG_MONTH?HB
            CODE    9AEBH     001DH     UNIT         ?PR?STOP_BLINK_BIG_DATE?HB
            CODE    9B08H     001DH     UNIT         ?PR?CLEAN_BIG_SET?HB
            CODE    9B25H     001DH     UNIT         ?PR?START_BLINK_YEAR?HB
            CODE    9B42H     001DH     UNIT         ?PR?START_BLINK_MONTH?HB
            CODE    9B5FH     001DH     UNIT         ?PR?START_BLINK_DATE?HB
            CODE    9B7CH     001DH     UNIT         ?PR?STOP_BLINK_MIN?HB
            CODE    9B99H     001CH     UNIT         ?PR?STOP_BLINK_YEAR?HB
            CODE    9BB5H     001CH     UNIT         ?PR?STOP_BLINK_MONTH?HB
            CODE    9BD1H     001CH     UNIT         ?PR?STOP_BLINK_DATE?HB
            CODE    9BEDH     001BH     UNIT         ?PR?STOP_BLINK_HOUR?HB
            CODE    9C08H     0018H     UNIT         ?PR?SING_READ_BIT?DS18B20
            CODE    9C20H     0018H     UNIT         ?PR?START_BLINK_HOUR?HB
            CODE    9C38H     0016H     UNIT         ?PR?_DELAY_MS?DELAY
            CODE    9C4EH     0016H     UNIT         ?PR?HB_SHOW_BIG_WEEK?HB
            CODE    9C64H     0016H     UNIT         ?PR?HB_SHOW_WEEK?HB
            CODE    9C7AH     0016H     UNIT         ?PR?CLEAR_RXBUFF?MAIN2233
            CODE    9C90H     0015H     UNIT         ?PR?_WRITE_IIC?IIC
            CODE    9CA5H     0015H     UNIT         ?PR?SHOW_SET?HB
            CODE    9CBAH     0015H     UNIT         ?PR?SHOW_ALARM?HB
            CODE    9CCFH     0012H     UNIT         ?PR?TEMPER_CONVERT?DS18B20
            CODE    9CE1H     0011H     UNIT         ?PR?_CUR_POS2?HB
            CODE    9CF2H     0011H     UNIT         ?PR?INITUART?MAIN2233
            CODE    9D03H     0010H     UNIT         ?PR?_DELAY1US?YUYIN
            CODE    9D13H     000EH     UNIT         ?PR?DELAY?IIC
            CODE    9D21H     000DH     UNIT         ?PR?_READ_DS1302?DS1302
            CODE    9D2EH     000BH     UNIT         ?PR?_DELAY_US?DELAY
            CODE    9D39H     000AH     UNIT         ?PR?INIT_IIC?IIC
            CODE    9D43H     000AH     UNIT         ?PR?STOP?IIC
            CODE    9D4DH     0008H     UNIT         ?PR?START?IIC
            CODE    9D55H     0008H     UNIT         ?PR?NOACK?IIC
            CODE    9D5DH     0008H     UNIT         ?PR?_UART_SEND_BYTE?MAIN2233
            CODE    9D65H     0007H     UNIT         ?PR?DS1302_INIT?DS1302
            CODE    9D6CH     0004H     UNIT         ?PR?CLEAR_BUFFER?MAIN2233
            CODE    9D70H     0003H     UNIT         ?PR?_SCREEN_CON?HB



OVERLAY MAP OF MODULE:   .\output\DS18b20 (DELAY)

BL51 BANKED LINKER/LOCATER V6.22                                                      05/27/2019  15:40:45  PAGE 5



SEGMENT                                       BIT_GROUP          XDATA_GROUP
  +--> CALLED SEGMENT                      START    LENGTH     START    LENGTH
------------------------------------------------------------------------------
?C_C51STARTUP                              -----    -----      -----    -----
  +--> ?PR?MAIN?MAIN
  +--> ?C_INITSEG

?PR?MAIN?MAIN                              -----    -----      0054H    0002H
  +--> ?PR?DS1302_INIT?DS1302
  +--> ?PR?SET_TIME?DS1302
  +--> ?PR?INITUART?MAIN2233
  +--> ?PR?INIT_IIC?IIC
  +--> ?PR?TEMPER_CONVERT?DS18B20
  +--> ?PR?_DELAY_MS?DELAY
  +--> ?PR?_READ_IIC?IIC
  +--> ?PR?ALARM_READ_IIC?ALARM
  +--> ?PR?HB_INIT?HB
  +--> ?PR?DRAW_FRAME?HB
  +--> ?PR?SHOW_TIME_SCREEN?SWITCH_SCREEN
  +--> ?PR?_SCREEN_CON?HB
  +--> ?PR?_DELAY_1MS?HB
  +--> ?PR?CHECK_ALARM_TIME?YUYIN
  +--> ?PR?BROADCAST_MORNING?YUYIN
  +--> ?PR?CHECK_NOW_TIME?YUYIN
  +--> ?PR?_BROADCAST_TEMP?YUYIN
  +--> ?PR?SWITCH_SCREEN?SWITCH_SCREEN
  +--> ?PR?MUSIC_SCREEN?YUYIN
  +--> ?PR?ADJUST_TIME?DS1302
  +--> ?PR?VOLUME_CONTROL?YUYIN
  +--> ?PR?ALARM_FUNCTION?ALARM

?PR?SET_TIME?DS1302                        -----    -----      005EH    0006H
  +--> ?PR?_WRITE_DS1302?DS1302

?PR?_WRITE_DS1302?DS1302                   -----    -----      -----    -----
  +--> ?PR?_WRITE_BYTE?DS1302

?PR?INIT_IIC?IIC                           -----    -----      -----    -----
  +--> ?PR?DELAY?IIC

?PR?TEMPER_CONVERT?DS18B20                 -----    -----      -----    -----
  +--> ?PR?MASTER_RESET?DS18B20
  +--> ?PR?_SING_WRITE_BYTE?DS18B20

?PR?MASTER_RESET?DS18B20                   -----    -----      -----    -----
  +--> ?PR?_DELAY_US?DELAY

?PR?_SING_WRITE_BYTE?DS18B20               0020H.4  0000H.1    -----    -----

?PR?_READ_IIC?IIC                          -----    -----      -----    -----
  +--> ?PR?START?IIC
  +--> ?PR?ACK?IIC
  +--> ?PR?_IIC_WRITE_BYTE?IIC
  +--> ?PR?IIC_READ_BYTE?IIC
  +--> ?PR?NOACK?IIC
  +--> ?PR?STOP?IIC
BL51 BANKED LINKER/LOCATER V6.22                                                      05/27/2019  15:40:45  PAGE 6



?PR?START?IIC                              -----    -----      -----    -----
  +--> ?PR?DELAY?IIC

?PR?ACK?IIC                                -----    -----      -----    -----
  +--> ?PR?_IIC_WRITE_BYTE?IIC
  +--> ?PR?DELAY?IIC

?PR?_IIC_WRITE_BYTE?IIC                    -----    -----      -----    -----
  +--> ?PR?DELAY?IIC

?PR?IIC_READ_BYTE?IIC                      -----    -----      -----    -----
  +--> ?PR?DELAY?IIC

?PR?NOACK?IIC                              -----    -----      -----    -----
  +--> ?PR?DELAY?IIC

?PR?STOP?IIC                               -----    -----      -----    -----
  +--> ?PR?DELAY?IIC

?PR?ALARM_READ_IIC?ALARM                   -----    -----      -----    -----
  +--> ?PR?_READ_IIC?IIC
  +--> ?PR?_DELAY_MS?DELAY

?PR?HB_INIT?HB                             -----    -----      0056H    0001H
  +--> ?PR?_DELAY_1MS?HB
  +--> ?PR?_WELCOME_MUSIC?YUYIN
  +--> ?PR?CLEAN_ALL?HB
  +--> ?PR?DRAW_FRAME?HB

?PR?_DELAY_1MS?HB                          -----    -----      -----    -----
  +--> ?PR?_SCREEN_CON?HB

?PR?_SCREEN_CON?HB                         -----    -----      -----    -----
  +--> ?PR?_SEND?HB

?PR?_WELCOME_MUSIC?YUYIN                   -----    -----      -----    -----
  +--> ?PR?_SENDDATA?YUYIN
  +--> ?PR?WELCOME_INIT?HB

?PR?_SENDDATA?YUYIN                        -----    -----      -----    -----
  +--> ?PR?_DELAY1US?YUYIN

?PR?WELCOME_INIT?HB                        -----    -----      -----    -----
  +--> ?CO?HB
  +--> ?PR?_DISPLAY_BMP?HB
  +--> ?PR?_DELAY_MS?DELAY

?PR?_DISPLAY_BMP?HB                        -----    -----      0076H    000AH
  +--> ?CO?HB
  +--> ?PR?_SEND?HB

?PR?CLEAN_ALL?HB                           -----    -----      -----    -----
  +--> ?PR?_SEND?HB

?PR?DRAW_FRAME?HB                          -----    -----      -----    -----
  +--> ?PR?_DISPLAY_LIN?HB
BL51 BANKED LINKER/LOCATER V6.22                                                      05/27/2019  15:40:45  PAGE 7



?PR?_DISPLAY_LIN?HB                        -----    -----      0057H    0006H
  +--> ?PR?_SEND?HB

?PR?SHOW_TIME_SCREEN?SWITCH_SCREEN         -----    -----      -----    -----
  +--> ?PR?READ_TIME?DS1302
  +--> ?PR?HB_SHOW_TIME?HB
  +--> ?PR?_READ_TEMPER?DS18B20
  +--> ?PR?TEMPER_CONVERT?DS18B20
  +--> ?PR?_HB_SHOW_TEMP?HB
  +--> ?PR?CAL_FESTIVAL?HB
  +--> ?PR?CAL_JIEQI?HB
  +--> ?PR?_JUDGE_LEAP_MONTH?HB
  +--> ?PR?SUN_TO_LUNAR?HB
  +--> ?PR?HB_SHOW_BIG_TIME_ONLY?HB
  +--> ?PR?HB_SHOW_BIG_DATE_ONLY?HB
  +--> ?PR?_SHOW_LUNAR?HB
  +--> ?PR?_DELAY_MS?DELAY
  +--> ?PR?SHOW_LUNAR_FESTIVAL?HB
  +--> ?PR?SHOW_FESTIVAL?HB
  +--> ?PR?SHOW_JIEQI?HB

?PR?READ_TIME?DS1302                       -----    -----      0068H    0006H
  +--> ?PR?_READ_DS1302?DS1302

?PR?_READ_DS1302?DS1302                    -----    -----      -----    -----
  +--> ?PR?_WRITE_BYTE?DS1302
  +--> ?PR?READ_BYTE?DS1302

?PR?HB_SHOW_TIME?HB                        -----    -----      0068H    0006H
  +--> ?PR?HB_SHOW_YEAR?HB
  +--> ?CO?HB
  +--> ?PR?_DISPLAY_STRCHAR?HB
  +--> ?PR?HB_SHOW_MONTH?HB
  +--> ?PR?HB_SHOW_DATE?HB
  +--> ?PR?HB_SHOW_WEEK?HB
  +--> ?PR?HB_SHOW_HOUR?HB
  +--> ?PR?_DISPLAY_BMP?HB
  +--> ?PR?HB_SHOW_MIN?HB
  +--> ?PR?HB_SHOW_SEC?HB

?PR?HB_SHOW_YEAR?HB                        -----    -----      006EH    0009H
  +--> ?PR?_INT_TO_STR?HB
  +--> ?CO?HB
  +--> ?PR?_DISPLAY_STRCHAR?HB

?PR?_INT_TO_STR?HB                         -----    -----      0077H    0003H

?PR?_DISPLAY_STRCHAR?HB                    -----    -----      0077H    0006H
  +--> ?PR?_SEND?HB

?PR?HB_SHOW_MONTH?HB                       -----    -----      006EH    0009H
  +--> ?PR?_INT_TO_STR?HB
  +--> ?PR?_DISPLAY_STRCHAR?HB

?PR?HB_SHOW_DATE?HB                        -----    -----      006EH    0009H
  +--> ?PR?_INT_TO_STR?HB
BL51 BANKED LINKER/LOCATER V6.22                                                      05/27/2019  15:40:45  PAGE 8


  +--> ?PR?_DISPLAY_STRCHAR?HB

?PR?HB_SHOW_WEEK?HB                        -----    -----      006EH    0006H
  +--> ?PR?CALCULATE_DAY?HB
  +--> ?PR?_DISPLAY_STRCHAR?HB

?PR?CALCULATE_DAY?HB                       -----    -----      0074H    000AH
  +--> ?CO?HB

?PR?HB_SHOW_HOUR?HB                        -----    -----      006EH    0008H
  +--> ?CO?HB
  +--> ?PR?_DISPLAY_BMP?HB

?PR?HB_SHOW_MIN?HB                         -----    -----      006EH    0008H
  +--> ?PR?_DISPLAY_BMP?HB
  +--> ?CO?HB

?PR?HB_SHOW_SEC?HB                         -----    -----      006EH    0008H
  +--> ?CO?HB
  +--> ?PR?_DISPLAY_BMP?HB

?PR?_READ_TEMPER?DS18B20                   -----    -----      0068H    0004H
  +--> ?PR?MASTER_RESET?DS18B20
  +--> ?PR?_SING_WRITE_BYTE?DS18B20
  +--> ?PR?SING_READ_BYTE?DS18B20

?PR?SING_READ_BYTE?DS18B20                 -----    -----      006CH    0002H
  +--> ?PR?SING_READ_BIT?DS18B20

?PR?SING_READ_BIT?DS18B20                  0020H.4  0000H.1    -----    -----
  +--> ?PR?_DELAY_US?DELAY

?PR?_HB_SHOW_TEMP?HB                       -----    -----      0068H    0006H
  +--> ?CO?HB
  +--> ?PR?_DISPLAY_STRCHAR?HB
  +--> ?PR?_DELAY_1MS?HB
  +--> ?PR?_INT_TO_STR?HB

?PR?CAL_JIEQI?HB                           -----    -----      0068H    0006H
  +--> ?PR?CONVER_JIEQI?HB

?PR?CONVER_JIEQI?HB                        -----    -----      006EH    0006H
  +--> ?CO?HB

?PR?_JUDGE_LEAP_MONTH?HB                   -----    -----      0069H    0003H
  +--> ?PR?SUN_TO_LUNAR?HB

?PR?SUN_TO_LUNAR?HB                        0020H.4  0000H.3    006CH    000BH
  +--> ?PR?_HEX_TO_BCD?HB
  +--> ?CO?HB
  +--> ?PR?_GET_MOON_DAY?HB

?PR?_GET_MOON_DAY?HB                       -----    -----      -----    -----
  +--> ?CO?HB

?PR?HB_SHOW_BIG_TIME_ONLY?HB               -----    -----      0068H    0006H
  +--> ?PR?HB_SHOW_BIG_HOUR?HB
BL51 BANKED LINKER/LOCATER V6.22                                                      05/27/2019  15:40:45  PAGE 9


  +--> ?CO?HB
  +--> ?PR?_DISPLAY_BMP?HB
  +--> ?PR?HB_SHOW_BIG_MIN?HB
  +--> ?PR?HB_SHOW_BIG_SEC?HB

?PR?HB_SHOW_BIG_HOUR?HB                    -----    -----      006EH    0008H
  +--> ?CO?HB
  +--> ?PR?_DISPLAY_BMP?HB

?PR?HB_SHOW_BIG_MIN?HB                     -----    -----      006EH    0008H
  +--> ?CO?HB
  +--> ?PR?_DISPLAY_BMP?HB

?PR?HB_SHOW_BIG_SEC?HB                     -----    -----      006EH    0007H
  +--> ?PR?_SEND?HB

?PR?HB_SHOW_BIG_DATE_ONLY?HB               -----    -----      0068H    0006H
  +--> ?PR?HB_SHOW_BIG_YEAR?HB
  +--> ?PR?_DELAY_MS?DELAY
  +--> ?CO?HB
  +--> ?PR?_DISPLAY_BMP?HB
  +--> ?PR?HB_SHOW_BIG_MONTH?HB
  +--> ?PR?HB_SHOW_BIG_DATE?HB

?PR?HB_SHOW_BIG_YEAR?HB                    -----    -----      006EH    0008H
  +--> ?CO?HB
  +--> ?PR?_DISPLAY_BMP?HB

?PR?HB_SHOW_BIG_MONTH?HB                   -----    -----      006EH    0008H
  +--> ?CO?HB
  +--> ?PR?_DISPLAY_BMP?HB

?PR?HB_SHOW_BIG_DATE?HB                    -----    -----      006EH    0008H
  +--> ?CO?HB
  +--> ?PR?_DISPLAY_BMP?HB

?PR?_SHOW_LUNAR?HB                         -----    -----      0068H    0001H
  +--> ?PR?_JUDGE_LEAP_MONTH?HB
  +--> ?CO?HB
  +--> ?PR?_DISPLAY_STRCHAR?HB
  +--> ?PR?_DELAY_MS?DELAY
  +--> ?PR?SUN_TO_LUNAR?HB

?PR?SHOW_LUNAR_FESTIVAL?HB                 -----    -----      -----    -----
  +--> ?CO?HB
  +--> ?PR?_DISPLAY_STRCHAR?HB

?PR?SHOW_FESTIVAL?HB                       -----    -----      -----    -----
  +--> ?CO?HB
  +--> ?PR?_DISPLAY_STRCHAR?HB
  +--> ?PR?_DELAY_MS?DELAY

?PR?SHOW_JIEQI?HB                          -----    -----      0068H    0006H
  +--> ?PR?CONVER_JIEQI?HB
  +--> ?CO?HB
  +--> ?PR?_DISPLAY_STRCHAR?HB

BL51 BANKED LINKER/LOCATER V6.22                                                      05/27/2019  15:40:45  PAGE 10


?PR?CHECK_ALARM_TIME?YUYIN                 -----    -----      0056H    0012H
  +--> ?PR?_SENDDATA?YUYIN
  +--> ?PR?READ_TIME?DS1302
  +--> ?PR?SHOW_TIME_SCREEN?SWITCH_SCREEN
  +--> ?PR?_DELAY_MS?DELAY

?PR?BROADCAST_MORNING?YUYIN                -----    -----      0056H    0006H
  +--> ?PR?_SENDDATA?YUYIN
  +--> ?PR?READ_TIME?DS1302
  +--> ?PR?SHOW_TIME_SCREEN?SWITCH_SCREEN
  +--> ?PR?_BROADCAST?YUYIN
  +--> ?PR?CALCULATE_DAY_NUM?HB
  +--> ?PR?CHECK_NOW_TIME?YUYIN

?PR?_BROADCAST?YUYIN                       -----    -----      005CH    0002H
  +--> ?PR?_SENDDATA?YUYIN
  +--> ?PR?READ_TIME?DS1302
  +--> ?PR?SHOW_TIME_SCREEN?SWITCH_SCREEN

?PR?CALCULATE_DAY_NUM?HB                   -----    -----      005CH    000AH

?PR?CHECK_NOW_TIME?YUYIN                   -----    -----      005CH    0006H
  +--> ?PR?_SENDDATA?YUYIN
  +--> ?PR?READ_TIME?DS1302
  +--> ?PR?SHOW_TIME_SCREEN?SWITCH_SCREEN

?PR?_BROADCAST_TEMP?YUYIN                  -----    -----      0056H    0004H
  +--> ?PR?_SENDDATA?YUYIN
  +--> ?PR?READ_TIME?DS1302
  +--> ?PR?SHOW_TIME_SCREEN?SWITCH_SCREEN
  +--> ?PR?_BROADCAST?YUYIN

?PR?SWITCH_SCREEN?SWITCH_SCREEN            -----    -----      -----    -----
  +--> ?PR?_DELAY_MS?DELAY
  +--> ?PR?CLEAN_ALL?HB
  +--> ?PR?HB_SHOW_TIME?HB
  +--> ?PR?_READ_TEMPER?DS18B20
  +--> ?PR?TEMPER_CONVERT?DS18B20
  +--> ?PR?_HB_SHOW_TEMP?HB
  +--> ?PR?HB_SHOW_BIG_TIME_ONLY?HB
  +--> ?PR?HB_SHOW_BIG_DATE_ONLY?HB
  +--> ?PR?_SHOW_LUNAR?HB
  +--> ?PR?SHOW_LUNAR_FESTIVAL?HB
  +--> ?PR?SHOW_FESTIVAL?HB
  +--> ?PR?SHOW_JIEQI?HB
  +--> ?PR?_WRITE_IIC?IIC

?PR?_WRITE_IIC?IIC                         -----    -----      -----    -----
  +--> ?PR?START?IIC
  +--> ?PR?_IIC_WRITE_BYTE?IIC
  +--> ?PR?ACK?IIC
  +--> ?PR?STOP?IIC

?PR?MUSIC_SCREEN?YUYIN                     -----    -----      -----    -----
  +--> ?PR?_DELAY_MS?DELAY
  +--> ?PR?CHOOSE_MUSIC?YUYIN

BL51 BANKED LINKER/LOCATER V6.22                                                      05/27/2019  15:40:45  PAGE 11


?PR?CHOOSE_MUSIC?YUYIN                     -----    -----      -----    -----
  +--> ?PR?CLEAN_ALL?HB
  +--> ?PR?_SENDDATA?YUYIN
  +--> ?PR?_SHOW_CHOOSE_MUSIC?HB
  +--> ?PR?_DELAY_MS?DELAY
  +--> ?PR?_WRITE_IIC?IIC

?PR?_SHOW_CHOOSE_MUSIC?HB                  -----    -----      -----    -----
  +--> ?PR?_SEND?HB

?PR?ADJUST_TIME?DS1302                     -----    -----      0056H    0001H
  +--> ?PR?_DELAY_MS?DELAY
  +--> ?PR?SHOW_SET?HB
  +--> ?PR?SET_START_BLINK?HB
  +--> ?PR?STOP_BLINK_YEAR?HB
  +--> ?PR?STOP_BLINK_MONTH?HB
  +--> ?PR?STOP_BLINK_DATE?HB
  +--> ?PR?STOP_BLINK_HOUR?HB
  +--> ?PR?STOP_BLINK_MIN?HB
  +--> ?PR?SET_STOP_BLINK?HB
  +--> ?PR?CLEAN_SET?HB
  +--> ?PR?START_BLINK_YEAR?HB
  +--> ?PR?START_BLINK_MONTH?HB
  +--> ?PR?START_BLINK_DATE?HB
  +--> ?PR?START_BLINK_HOUR?HB
  +--> ?PR?START_BLINK_MIN?HB
  +--> ?PR?ADD_SUB_YEAR?DS1302
  +--> ?PR?READ_TIME?DS1302
  +--> ?PR?HB_SHOW_YEAR?HB
  +--> ?PR?ADD_SUB_MONTH?DS1302
  +--> ?PR?SET_TIME?DS1302
  +--> ?PR?HB_SHOW_MONTH?HB
  +--> ?PR?HB_SHOW_DATE?HB
  +--> ?PR?ADD_SUB_DATE?DS1302
  +--> ?PR?ADD_SUB_HOUR?DS1302
  +--> ?PR?HB_SHOW_HOUR?HB
  +--> ?PR?ADD_SUB_MIN?DS1302
  +--> ?PR?HB_SHOW_MIN?HB
  +--> ?PR?STOP_BLINK_BIG_MIN?HB
  +--> ?PR?START_BLINK_BIG_HOUR?HB
  +--> ?PR?STOP_BLINK_BIG_HOUR?HB
  +--> ?PR?START_BLINK_BIG_MIN?HB
  +--> ?PR?HB_SHOW_BIG_HOUR?HB
  +--> ?PR?HB_SHOW_BIG_MIN?HB
  +--> ?PR?STOP_BLINK_BIG_YEAR?HB
  +--> ?PR?STOP_BLINK_BIG_MONTH?HB
  +--> ?PR?STOP_BLINK_BIG_DATE?HB
  +--> ?PR?START_BLINK_BIG_YEAR?HB
  +--> ?PR?START_BLINK_BIG_MONTH?HB
  +--> ?PR?START_BLINK_BIG_DATE?HB
  +--> ?PR?HB_SHOW_BIG_YEAR?HB
  +--> ?PR?HB_SHOW_BIG_MONTH?HB
  +--> ?PR?HB_SHOW_BIG_DATE?HB
  +--> ?PR?_SHOW_LUNAR?HB
  +--> ?PR?SHOW_LUNAR_FESTIVAL?HB
  +--> ?PR?SHOW_FESTIVAL?HB
  +--> ?PR?SHOW_JIEQI?HB
BL51 BANKED LINKER/LOCATER V6.22                                                      05/27/2019  15:40:45  PAGE 12



?PR?SHOW_SET?HB                            -----    -----      -----    -----
  +--> ?CO?HB
  +--> ?PR?_DISPLAY_STRCHAR?HB

?PR?SET_START_BLINK?HB                     -----    -----      -----    -----
  +--> ?PR?_SEND?HB

?PR?STOP_BLINK_YEAR?HB                     -----    -----      -----    -----
  +--> ?PR?_SEND?HB

?PR?STOP_BLINK_MONTH?HB                    -----    -----      -----    -----
  +--> ?PR?_SEND?HB

?PR?STOP_BLINK_DATE?HB                     -----    -----      -----    -----
  +--> ?PR?_SEND?HB

?PR?STOP_BLINK_HOUR?HB                     -----    -----      -----    -----
  +--> ?PR?_SEND?HB

?PR?STOP_BLINK_MIN?HB                      -----    -----      -----    -----
  +--> ?PR?_SEND?HB

?PR?SET_STOP_BLINK?HB                      -----    -----      -----    -----
  +--> ?PR?_SEND?HB

?PR?CLEAN_SET?HB                           -----    -----      -----    -----
  +--> ?PR?_SEND?HB

?PR?START_BLINK_YEAR?HB                    -----    -----      -----    -----
  +--> ?PR?_SEND?HB

?PR?START_BLINK_MONTH?HB                   -----    -----      -----    -----
  +--> ?PR?_SEND?HB

?PR?START_BLINK_DATE?HB                    -----    -----      -----    -----
  +--> ?PR?_SEND?HB

?PR?START_BLINK_HOUR?HB                    -----    -----      -----    -----
  +--> ?PR?_SEND?HB

?PR?START_BLINK_MIN?HB                     -----    -----      -----    -----
  +--> ?PR?_SEND?HB

?PR?ADD_SUB_YEAR?DS1302                    -----    -----      0057H    0007H
  +--> ?PR?SET_TIME?DS1302

?PR?ADD_SUB_MONTH?DS1302                   -----    -----      0057H    0007H
  +--> ?PR?SET_TIME?DS1302

?PR?ADD_SUB_DATE?DS1302                    -----    -----      0057H    0007H
  +--> ?PR?SET_TIME?DS1302

?PR?ADD_SUB_HOUR?DS1302                    -----    -----      0057H    0007H
  +--> ?PR?SET_TIME?DS1302

?PR?ADD_SUB_MIN?DS1302                     -----    -----      0057H    0007H
BL51 BANKED LINKER/LOCATER V6.22                                                      05/27/2019  15:40:45  PAGE 13


  +--> ?PR?SET_TIME?DS1302

?PR?STOP_BLINK_BIG_MIN?HB                  -----    -----      -----    -----
  +--> ?PR?_SEND?HB

?PR?START_BLINK_BIG_HOUR?HB                -----    -----      -----    -----
  +--> ?PR?_SEND?HB

?PR?STOP_BLINK_BIG_HOUR?HB                 -----    -----      -----    -----
  +--> ?PR?_SEND?HB

?PR?START_BLINK_BIG_MIN?HB                 -----    -----      -----    -----
  +--> ?PR?_SEND?HB

?PR?STOP_BLINK_BIG_YEAR?HB                 -----    -----      -----    -----
  +--> ?PR?_SEND?HB

?PR?STOP_BLINK_BIG_MONTH?HB                -----    -----      -----    -----
  +--> ?PR?_SEND?HB

?PR?STOP_BLINK_BIG_DATE?HB                 -----    -----      -----    -----
  +--> ?PR?_SEND?HB

?PR?START_BLINK_BIG_YEAR?HB                -----    -----      -----    -----
  +--> ?PR?_SEND?HB

?PR?START_BLINK_BIG_MONTH?HB               -----    -----      -----    -----
  +--> ?PR?_SEND?HB

?PR?START_BLINK_BIG_DATE?HB                -----    -----      -----    -----
  +--> ?PR?_SEND?HB

?PR?VOLUME_CONTROL?YUYIN                   -----    -----      -----    -----
  +--> ?PR?_DELAY_MS?DELAY
  +--> ?PR?STOP_BLINK_ALARM?HB
  +--> ?PR?CLEAN_ALL?HB
  +--> ?PR?ADJUST_VOLUME?YUYIN

?PR?STOP_BLINK_ALARM?HB                    -----    -----      -----    -----
  +--> ?PR?_SEND?HB

?PR?ADJUST_VOLUME?YUYIN                    -----    -----      -----    -----
  +--> ?PR?_SENDDATA?YUYIN
  +--> ?PR?_SHOW_VOLUME?HB
  +--> ?PR?_DELAY_MS?DELAY
  +--> ?PR?CLEAN_ALL?HB
  +--> ?PR?_WRITE_IIC?IIC

?PR?_SHOW_VOLUME?HB                        -----    -----      -----    -----
  +--> ?CO?HB
  +--> ?PR?_DISPLAY_BMP?HB

?PR?ALARM_FUNCTION?ALARM                   -----    -----      -----    -----
  +--> ?PR?_DELAY_MS?DELAY
  +--> ?PR?_STOP_BLINK_WEEK?HB
  +--> ?PR?STOP_BLINK_ALARM?HB
  +--> ?PR?CLEAN_ALL?HB
BL51 BANKED LINKER/LOCATER V6.22                                                      05/27/2019  15:40:45  PAGE 14


  +--> ?PR?_SHOW_ALARM_ALL?HB
  +--> ?PR?SHOW_TIME_ONLY?HB
  +--> ?PR?SHOW_ALARM?HB
  +--> ?PR?START_BLINK_ALARM?HB
  +--> ?PR?STOP_BLINK_MIN?HB
  +--> ?PR?_SHOW_ALARM_DAY?HB
  +--> ?PR?_START_BLINK_WEEK?HB
  +--> ?PR?START_BLINK_HOUR?HB
  +--> ?PR?STOP_BLINK_HOUR?HB
  +--> ?PR?START_BLINK_MIN?HB
  +--> ?PR?_CLEAN_ALARM_DAY?HB
  +--> ?PR?ADD_SUB_HOUR_ALARM?DS1302
  +--> ?PR?HB_SHOW_HOUR?HB
  +--> ?PR?ADD_SUB_MIN_ALARM?DS1302
  +--> ?PR?HB_SHOW_MIN?HB
  +--> ?PR?_ALARM_WRITE_IIC?ALARM

?PR?_STOP_BLINK_WEEK?HB                    -----    -----      -----    -----
  +--> ?PR?_SEND?HB

?PR?_SHOW_ALARM_ALL?HB                     -----    -----      -----    -----
  +--> ?PR?CLEAN_ALARM_ALL?HB
  +--> ?PR?_SHOW_ALARM_DAY?HB

?PR?CLEAN_ALARM_ALL?HB                     -----    -----      -----    -----
  +--> ?PR?_SEND?HB

?PR?_SHOW_ALARM_DAY?HB                     -----    -----      -----    -----
  +--> ?PR?_CUR_POS2?HB
  +--> ?PR?_SEND?HB

?PR?_CUR_POS2?HB                           -----    -----      -----    -----
  +--> ?PR?_SEND?HB

?PR?SHOW_TIME_ONLY?HB                      -----    -----      0056H    0008H
  +--> ?CO?HB
  +--> ?PR?_DISPLAY_BMP?HB

?PR?SHOW_ALARM?HB                          -----    -----      -----    -----
  +--> ?CO?HB
  +--> ?PR?_DISPLAY_STRCHAR?HB

?PR?START_BLINK_ALARM?HB                   -----    -----      -----    -----
  +--> ?PR?_SEND?HB

?PR?_START_BLINK_WEEK?HB                   -----    -----      -----    -----
  +--> ?PR?_SEND?HB

?PR?_CLEAN_ALARM_DAY?HB                    -----    -----      -----    -----
  +--> ?PR?_SEND?HB

?PR?ADD_SUB_HOUR_ALARM?DS1302              -----    -----      0056H    0007H

?PR?ADD_SUB_MIN_ALARM?DS1302               -----    -----      0056H    0007H

?PR?_ALARM_WRITE_IIC?ALARM                 -----    -----      0056H    0006H
  +--> ?PR?_WRITE_IIC?IIC
BL51 BANKED LINKER/LOCATER V6.22                                                      05/27/2019  15:40:45  PAGE 15


  +--> ?PR?_DELAY_MS?DELAY



SYMBOL TABLE OF MODULE:  .\output\DS18b20 (DELAY)

  VALUE           TYPE          NAME
  ----------------------------------

  -------         MODULE        DELAY
  C:0000H         SYMBOL        _ICE_DUMMY_
  D:0090H         PUBLIC        P1
  D:00A0H         PUBLIC        P2
  D:00B0H         PUBLIC        P3
  C:9C38H         PUBLIC        _delay_ms
  C:9D2EH         PUBLIC        _delay_us
  -------         PROC          _DELAY_MS
  D:0006H         SYMBOL        timer
  -------         DO            
  D:0005H         SYMBOL        j
  -------         ENDDO         
  C:9C38H         LINE#         10
  C:9C38H         LINE#         11
  C:9C38H         LINE#         12
  C:9C38H         LINE#         13
  C:9C42H         LINE#         14
  C:9C42H         LINE#         15
  C:9C4AH         LINE#         16
  C:9C4AH         LINE#         18
  C:9C4DH         LINE#         19
  C:9C4DH         LINE#         20
  -------         ENDPROC       _DELAY_MS
  -------         PROC          _DELAY_US
  D:0007H         SYMBOL        timer
  C:9D2EH         LINE#         26
  C:9D2EH         LINE#         27
  C:9D2EH         LINE#         28
  C:9D34H         LINE#         29
  C:9D34H         LINE#         30
  C:9D35H         LINE#         31
  C:9D38H         LINE#         32
  -------         ENDPROC       _DELAY_US
  -------         ENDMOD        DELAY

  -------         MODULE        MAIN
  C:0000H         SYMBOL        _ICE_DUMMY_
  X:0000H         PUBLIC        broadcast_now_time_flag
  X:0001H         PUBLIC        cur_pos
  D:0090H         PUBLIC        P1
  D:00A0H         PUBLIC        P2
  D:00B0H         PUBLIC        P3
  B:00A8H.7       PUBLIC        EA
  X:0002H         PUBLIC        broadcast_morning_flag_flag
  X:0003H         PUBLIC        pbuff
  X:0005H         PUBLIC        broadcast_morning_flag
  X:0006H         PUBLIC        festival_num
  X:0007H         PUBLIC        sleep_flag
BL51 BANKED LINKER/LOCATER V6.22                                                      05/27/2019  15:40:45  PAGE 16


  X:0008H         PUBLIC        night_light
  B:0020H.0       PUBLIC        light
  X:0009H         PUBLIC        volume
  C:5FB9H         PUBLIC        main
  X:000AH         PUBLIC        wifi_light_flag
  B:0020H.1       PUBLIC        leap_month_flag
  X:000BH         PUBLIC        down_temper
  X:000CH         PUBLIC        wifi_light
  X:000DH         PUBLIC        alarm_show_flag
  X:001BH         PUBLIC        broadcast_now_time_flag_tmp
  B:0020H.2       PUBLIC        screen_num_flag
  X:001CH         PUBLIC        screen_num
  B:0020H.3       PUBLIC        start_music
  B:00A0H.4       PUBLIC        HUMAN_SENSOR
  X:001DH         PUBLIC        alarm_set
  X:001EH         PUBLIC        alarm_pos
  X:001FH         PUBLIC        broadcast_morning_flag_tmp
  X:0020H         PUBLIC        music_num
  X:0021H         PUBLIC        up_temper
  X:0022H         PUBLIC        str_time_alarm_flag
  X:002EH         PUBLIC        str_time_alarm
  X:003AH         PUBLIC        wifi_light_tmp
  X:003BH         PUBLIC        str_time_sleep
  X:0047H         PUBLIC        str_time
  B:00B0H.6       PUBLIC        ALARM
  X:004DH         PUBLIC        str_time_lunar
  X:0053H         PUBLIC        broadcast_now_time_flag_flag
  -------         PROC          MAIN
  -------         DO            
  X:0054H         SYMBOL        check_sensor
  X:0055H         SYMBOL        check_sensor2
  -------         ENDDO         
  C:5FB9H         LINE#         59
  C:5FB9H         LINE#         60
  C:5FB9H         LINE#         61
  C:5FBEH         LINE#         62
  C:5FC1H         LINE#         63
  C:5FC4H         LINE#         64
  C:5FDAH         LINE#         65
  C:5FDDH         LINE#         66
  C:5FE0H         LINE#         67
  C:5FE2H         LINE#         68
  C:5FE5H         LINE#         69
  C:5FECH         LINE#         72
  C:5FF6H         LINE#         73
  C:6000H         LINE#         74
  C:600AH         LINE#         75
  C:600DH         LINE#         76
  C:6017H         LINE#         77
  C:6021H         LINE#         78
  C:602BH         LINE#         79
  C:6035H         LINE#         80
  C:603FH         LINE#         81
  C:6049H         LINE#         82
  C:6053H         LINE#         83
  C:605DH         LINE#         84
  C:6067H         LINE#         85
BL51 BANKED LINKER/LOCATER V6.22                                                      05/27/2019  15:40:45  PAGE 17


  C:6071H         LINE#         86
  C:607BH         LINE#         87
  C:6085H         LINE#         88
  C:608FH         LINE#         89
  C:6099H         LINE#         90
  C:609CH         LINE#         93
  C:609CH         LINE#         94
  C:609CH         LINE#         95
  C:60A1H         LINE#         96
  C:60A4H         LINE#         98
  C:60A7H         LINE#         101
  C:60AFH         LINE#         102
  C:60AFH         LINE#         103
  C:60B2H         LINE#         104
  C:60B2H         LINE#         105
  C:60BCH         LINE#         106
  C:60BCH         LINE#         107
  C:60BEH         LINE#         108
  C:60C3H         LINE#         109
  C:60C5H         LINE#         110
  C:60CCH         LINE#         111
  C:60CCH         LINE#         112
  C:60D5H         LINE#         113
  C:60D5H         LINE#         114
  C:60D5H         LINE#         115
  C:60D5H         LINE#         116
  C:60D5H         LINE#         117
  C:60D5H         LINE#         118
  C:60D7H         LINE#         120
  C:60D7H         LINE#         121
  C:60E1H         LINE#         122
  C:60E1H         LINE#         123
  C:60E6H         LINE#         124
  C:60EBH         LINE#         125
  C:60EDH         LINE#         126
  C:60F4H         LINE#         127
  C:60F4H         LINE#         128
  C:60FDH         LINE#         129
  C:60FDH         LINE#         130
  C:6102H         LINE#         131
  C:6102H         LINE#         132
  C:6102H         LINE#         133
  C:6102H         LINE#         135
  C:6102H         LINE#         136
  C:6104H         LINE#         137
  C:610BH         LINE#         138
  C:610BH         LINE#         139
  C:610EH         LINE#         140
  C:610EH         LINE#         141
  C:6113H         LINE#         142
  C:6115H         LINE#         143
  C:611CH         LINE#         144
  C:611CH         LINE#         145
  C:6123H         LINE#         146
  C:6128H         LINE#         147
  C:6128H         LINE#         148
  C:6128H         LINE#         150
BL51 BANKED LINKER/LOCATER V6.22                                                      05/27/2019  15:40:45  PAGE 18


  C:612AH         LINE#         151
  C:6130H         LINE#         152
  C:6130H         LINE#         153
  C:6133H         LINE#         154
  C:6133H         LINE#         155
  C:6138H         LINE#         156
  C:613AH         LINE#         157
  C:613AH         LINE#         158
  C:613AH         LINE#         160
  C:6166H         LINE#         162
  C:6170H         LINE#         163
  C:6170H         LINE#         164
  C:617FH         LINE#         165
  C:617FH         LINE#         166
  C:6195H         LINE#         167
  C:6195H         LINE#         168
  C:6197H         LINE#         169
  C:619EH         LINE#         170
  C:619EH         LINE#         171
  C:61B4H         LINE#         172
  C:61BDH         LINE#         173
  C:61BDH         LINE#         174
  C:61BDH         LINE#         176
  C:61C0H         LINE#         178
  C:61C3H         LINE#         180
  C:61C6H         LINE#         182
  C:61C9H         LINE#         187
  C:61CCH         LINE#         191
  C:61D7H         LINE#         192
  C:61D7H         LINE#         193
  C:6215H         LINE#         200
  C:6215H         LINE#         201
  C:621AH         LINE#         202
  C:621EH         LINE#         203
  C:6222H         LINE#         204
  C:6228H         LINE#         205
  C:6228H         LINE#         206
  C:622FH         LINE#         207
  C:6235H         LINE#         208
  C:6235H         LINE#         209
  C:623BH         LINE#         210
  C:6240H         LINE#         211
  C:6240H         LINE#         212
  C:6240H         LINE#         213
  C:6243H         LINE#         215
  C:6243H         LINE#         216
  C:624BH         LINE#         217
  C:6253H         LINE#         218
  C:625BH         LINE#         219
  C:625BH         LINE#         220
  C:625EH         LINE#         222
  C:625EH         LINE#         223
  C:6266H         LINE#         224
  C:626EH         LINE#         225
  C:6276H         LINE#         226
  C:6276H         LINE#         252
  -------         ENDPROC       MAIN
BL51 BANKED LINKER/LOCATER V6.22                                                      05/27/2019  15:40:45  PAGE 19


  -------         ENDMOD        MAIN

  -------         MODULE        DS1302
  C:0000H         SYMBOL        _ICE_DUMMY_
  D:0090H         PUBLIC        P1
  D:00A0H         PUBLIC        P2
  D:00B0H         PUBLIC        P3
  B:0090H.2       PUBLIC        DS_IO
  C:9D21H         PUBLIC        _read_ds1302
  C:3DF8H         PUBLIC        adjust_time
  B:0090H.1       PUBLIC        DS_SCLK
  C:97C4H         PUBLIC        _write_ds1302
  C:944BH         PUBLIC        read_time
  C:94F0H         PUBLIC        read_byte
  C:9D65H         PUBLIC        ds1302_init
  C:99E6H         PUBLIC        _write_byte
  B:0090H.6       PUBLIC        ADD
  B:0090H.5       PUBLIC        SWITCH
  C:7C42H         PUBLIC        add_sub_date
  C:8F0DH         PUBLIC        set_time
  C:9079H         PUBLIC        add_sub_month
  C:9618H         PUBLIC        add_sub_hour_alarm
  C:8F60H         PUBLIC        add_sub_year
  B:0090H.7       PUBLIC        SUB
  C:9648H         PUBLIC        add_sub_min_alarm
  B:00B0H.6       PUBLIC        ALARM
  B:0090H.0       PUBLIC        DS_RST
  C:912FH         PUBLIC        add_sub_hour
  C:9186H         PUBLIC        add_sub_min
  -------         PROC          DS1302_INIT
  C:9D65H         LINE#         23
  C:9D65H         LINE#         24
  C:9D65H         LINE#         25
  C:9D67H         LINE#         26
  C:9D69H         LINE#         27
  C:9D6BH         LINE#         28
  -------         ENDPROC       DS1302_INIT
  -------         PROC          L?0195
  -------         ENDPROC       L?0195
  -------         PROC          _WRITE_BYTE
  D:0007H         SYMBOL        dat
  -------         DO            
  D:0006H         SYMBOL        i
  -------         ENDDO         
  C:99E6H         LINE#         34
  C:99E6H         LINE#         35
  C:99E6H         LINE#         36
  C:99E8H         LINE#         38
  C:99E8H         LINE#         39
  C:99E8H         LINE#         40
  C:99EAH         LINE#         41
  C:99EEH         LINE#         42
  C:99F0H         LINE#         43
  C:99F2H         LINE#         44
  C:99F4H         LINE#         45
  C:99F8H         LINE#         46
  C:99FDH         LINE#         47
BL51 BANKED LINKER/LOCATER V6.22                                                      05/27/2019  15:40:45  PAGE 20


  -------         ENDPROC       _WRITE_BYTE
  -------         PROC          READ_BYTE
  -------         DO            
  D:0007H         SYMBOL        i
  D:0006H         SYMBOL        dat
  D:0005H         SYMBOL        tmp
  -------         ENDDO         
  C:94F0H         LINE#         54
  C:94F0H         LINE#         55
  C:94F0H         LINE#         56
  C:94F2H         LINE#         57
  C:94F3H         LINE#         58
  C:94F3H         LINE#         61
  C:94F3H         LINE#         62
  C:94F3H         LINE#         63
  C:94F5H         LINE#         64
  C:94F7H         LINE#         65
  C:94F9H         LINE#         66
  C:94FBH         LINE#         67
  C:9500H         LINE#         68
  C:9504H         LINE#         69
  C:950DH         LINE#         70
  C:9512H         LINE#         72
  C:9521H         LINE#         73
  C:9522H         LINE#         74
  -------         ENDPROC       READ_BYTE
  -------         PROC          _READ_DS1302
  D:0007H         SYMBOL        addr
  -------         DO            
  D:0007H         SYMBOL        tmp
  -------         ENDDO         
  C:9D21H         LINE#         81
  C:9D21H         LINE#         82
  C:9D21H         LINE#         85
  C:9D21H         LINE#         86
  C:9D21H         LINE#         87
  C:9D21H         LINE#         88
  C:9D24H         LINE#         89
  C:9D27H         LINE#         90
  C:9D29H         LINE#         91
  C:9D2BH         LINE#         92
  C:9D2DH         LINE#         94
  C:9D2DH         LINE#         95
  -------         ENDPROC       _READ_DS1302
  -------         PROC          L?0194
  -------         ENDPROC       L?0194
  -------         PROC          _WRITE_DS1302
  D:0007H         SYMBOL        addr
  D:0005H         SYMBOL        dat
  -------         DO            
  D:0004H         SYMBOL        tmp
  -------         ENDDO         
  C:97C4H         LINE#         102
  C:97C4H         LINE#         103
  C:97C4H         LINE#         104
  C:97C5H         LINE#         105
  C:97D7H         LINE#         107
BL51 BANKED LINKER/LOCATER V6.22                                                      05/27/2019  15:40:45  PAGE 21


  C:97D7H         LINE#         108
  C:97D7H         LINE#         109
  C:97D7H         LINE#         110
  C:97DAH         LINE#         111
  C:97DFH         LINE#         112
  C:97E1H         LINE#         113
  C:97E3H         LINE#         114
  -------         ENDPROC       _WRITE_DS1302
  -------         PROC          READ_TIME
  -------         DO            
  X:0068H         SYMBOL        str_time
  -------         ENDDO         
  C:944BH         LINE#         121
  C:944BH         LINE#         122
  C:944BH         LINE#         124
  C:9455H         LINE#         125
  C:945DH         LINE#         126
  C:9465H         LINE#         127
  C:946DH         LINE#         128
  C:9475H         LINE#         129
  C:947DH         LINE#         130
  C:9483H         LINE#         131
  -------         ENDPROC       READ_TIME
  C:8EE9H         SYMBOL        L?0188
  -------         PROC          L?0187
  -------         ENDPROC       L?0187
  C:8EE9H         SYMBOL        L?0188
  -------         PROC          SET_TIME
  X:005EH         SYMBOL        str_time
  C:8F0DH         LINE#         137
  C:8F0DH         LINE#         138
  C:8F0DH         LINE#         139
  C:8F14H         LINE#         140
  C:8F1EH         LINE#         141
  C:8F23H         LINE#         142
  C:8F28H         LINE#         143
  C:8F30H         LINE#         144
  C:8F38H         LINE#         145
  C:8F40H         LINE#         146
  -------         ENDPROC       SET_TIME
  -------         PROC          L?0189
  -------         ENDPROC       L?0189
  -------         PROC          ADD_SUB_YEAR
  X:0057H         SYMBOL        str_time
  X:005DH         SYMBOL        i
  C:8F60H         LINE#         150
  C:8F60H         LINE#         151
  C:8F60H         LINE#         152
  C:8F67H         LINE#         153
  C:8F67H         LINE#         154
  C:8F6EH         LINE#         155
  C:8F72H         LINE#         157
  C:8F78H         LINE#         158
  C:8F7AH         LINE#         160
  C:8F7AH         LINE#         161
  C:8F80H         LINE#         162
  C:8F85H         LINE#         164
BL51 BANKED LINKER/LOCATER V6.22                                                      05/27/2019  15:40:45  PAGE 22


  C:8F8BH         LINE#         165
  C:8F8BH         LINE#         166
  C:8F90H         LINE#         167
  -------         ENDPROC       ADD_SUB_YEAR
  -------         PROC          L?0190
  -------         ENDPROC       L?0190
  -------         PROC          ADD_SUB_MONTH
  X:0057H         SYMBOL        str_time
  X:005DH         SYMBOL        i
  C:9079H         LINE#         169
  C:9079H         LINE#         170
  C:9079H         LINE#         171
  C:9080H         LINE#         172
  C:9080H         LINE#         173
  C:9087H         LINE#         174
  C:9089H         LINE#         175
  C:908FH         LINE#         176
  C:9091H         LINE#         178
  C:9091H         LINE#         179
  C:9098H         LINE#         180
  C:909BH         LINE#         181
  C:90A1H         LINE#         182
  C:90A1H         LINE#         183
  C:90A6H         LINE#         184
  -------         ENDPROC       ADD_SUB_MONTH
  -------         PROC          L?0191
  -------         ENDPROC       L?0191
  -------         PROC          ADD_SUB_DATE
  X:0057H         SYMBOL        str_time
  X:005DH         SYMBOL        i
  C:7C42H         LINE#         186
  C:7C42H         LINE#         187
  C:7C42H         LINE#         188
  C:7C4AH         LINE#         189
  C:7C4AH         LINE#         190
  C:7C79H         LINE#         191
  C:7C79H         LINE#         192
  C:7C79H         LINE#         193
  C:7C79H         LINE#         194
  C:7C79H         LINE#         195
  C:7C79H         LINE#         196
  C:7C79H         LINE#         197
  C:7C79H         LINE#         198
  C:7C79H         LINE#         199
  C:7C80H         LINE#         200
  C:7C80H         LINE#         201
  C:7C82H         LINE#         202
  C:7C82H         LINE#         203
  C:7C82H         LINE#         204
  C:7C84H         LINE#         205
  C:7C84H         LINE#         206
  C:7C84H         LINE#         207
  C:7C84H         LINE#         208
  C:7C84H         LINE#         209
  C:7C8BH         LINE#         210
  C:7C8BH         LINE#         211
  C:7C8DH         LINE#         212
BL51 BANKED LINKER/LOCATER V6.22                                                      05/27/2019  15:40:45  PAGE 23


  C:7C8DH         LINE#         213
  C:7C8DH         LINE#         214
  C:7C8FH         LINE#         215
  C:7C8FH         LINE#         216
  C:7C97H         LINE#         217
  C:7C97H         LINE#         218
  C:7C9EH         LINE#         219
  C:7C9EH         LINE#         220
  C:7CA0H         LINE#         221
  C:7CA0H         LINE#         222
  C:7CA0H         LINE#         223
  C:7CA2H         LINE#         224
  C:7CA2H         LINE#         226
  C:7CA2H         LINE#         227
  C:7CA9H         LINE#         228
  C:7CA9H         LINE#         229
  C:7CABH         LINE#         230
  C:7CABH         LINE#         231
  C:7CB1H         LINE#         232
  C:7CB3H         LINE#         233
  C:7CB3H         LINE#         234
  C:7CB3H         LINE#         235
  C:7CB3H         LINE#         237
  C:7CB3H         LINE#         238
  C:7CE2H         LINE#         239
  C:7CE2H         LINE#         240
  C:7CE2H         LINE#         241
  C:7CE2H         LINE#         242
  C:7CE2H         LINE#         243
  C:7CE2H         LINE#         244
  C:7CE2H         LINE#         245
  C:7CE2H         LINE#         246
  C:7CE2H         LINE#         247
  C:7CE9H         LINE#         248
  C:7CE9H         LINE#         249
  C:7CECH         LINE#         250
  C:7CECH         LINE#         251
  C:7CECH         LINE#         252
  C:7CEEH         LINE#         253
  C:7CEEH         LINE#         254
  C:7CEEH         LINE#         255
  C:7CEEH         LINE#         256
  C:7CEEH         LINE#         257
  C:7CF5H         LINE#         258
  C:7CF5H         LINE#         259
  C:7CF8H         LINE#         260
  C:7CF8H         LINE#         261
  C:7CF8H         LINE#         262
  C:7CFAH         LINE#         263
  C:7CFAH         LINE#         264
  C:7D02H         LINE#         265
  C:7D02H         LINE#         266
  C:7D09H         LINE#         267
  C:7D09H         LINE#         268
  C:7D0CH         LINE#         269
  C:7D0CH         LINE#         270
  C:7D0CH         LINE#         271
BL51 BANKED LINKER/LOCATER V6.22                                                      05/27/2019  15:40:45  PAGE 24


  C:7D0EH         LINE#         272
  C:7D0EH         LINE#         274
  C:7D0EH         LINE#         275
  C:7D15H         LINE#         276
  C:7D15H         LINE#         277
  C:7D18H         LINE#         278
  C:7D18H         LINE#         279
  C:7D1EH         LINE#         280
  C:7D1EH         LINE#         281
  C:7D1EH         LINE#         282
  C:7D1EH         LINE#         283
  C:7D1EH         LINE#         284
  C:7D23H         LINE#         285
  -------         ENDPROC       ADD_SUB_DATE
  -------         PROC          L?0192
  -------         ENDPROC       L?0192
  -------         PROC          ADD_SUB_HOUR
  X:0057H         SYMBOL        str_time
  X:005DH         SYMBOL        i
  C:912FH         LINE#         288
  C:912FH         LINE#         289
  C:912FH         LINE#         290
  C:9136H         LINE#         291
  C:9136H         LINE#         292
  C:913CH         LINE#         293
  C:9140H         LINE#         294
  C:9140H         LINE#         295
  C:9142H         LINE#         296
  C:9142H         LINE#         298
  C:9144H         LINE#         300
  C:9144H         LINE#         301
  C:914AH         LINE#         302
  C:914AH         LINE#         303
  C:914DH         LINE#         304
  C:914DH         LINE#         305
  C:9153H         LINE#         306
  C:9153H         LINE#         307
  C:9158H         LINE#         308
  -------         ENDPROC       ADD_SUB_HOUR
  -------         PROC          L?0193
  -------         ENDPROC       L?0193
  -------         PROC          ADD_SUB_MIN
  X:0057H         SYMBOL        str_time
  X:005DH         SYMBOL        i
  C:9186H         LINE#         310
  C:9186H         LINE#         311
  C:9186H         LINE#         312
  C:918DH         LINE#         313
  C:918DH         LINE#         314
  C:9193H         LINE#         315
  C:9197H         LINE#         316
  C:9197H         LINE#         317
  C:9199H         LINE#         318
  C:9199H         LINE#         319
  C:919BH         LINE#         321
  C:919BH         LINE#         322
  C:91A1H         LINE#         323
BL51 BANKED LINKER/LOCATER V6.22                                                      05/27/2019  15:40:45  PAGE 25


  C:91A1H         LINE#         324
  C:91A4H         LINE#         325
  C:91A4H         LINE#         326
  C:91AAH         LINE#         327
  C:91AAH         LINE#         328
  C:91AFH         LINE#         329
  -------         ENDPROC       ADD_SUB_MIN
  -------         PROC          ADD_SUB_HOUR_ALARM
  X:0056H         SYMBOL        str_time
  X:005CH         SYMBOL        i
  C:9618H         LINE#         338
  C:9618H         LINE#         339
  C:9618H         LINE#         340
  C:961FH         LINE#         341
  C:961FH         LINE#         342
  C:9625H         LINE#         343
  C:9629H         LINE#         344
  C:9629H         LINE#         345
  C:962BH         LINE#         346
  C:962BH         LINE#         348
  C:962DH         LINE#         350
  C:962DH         LINE#         351
  C:9633H         LINE#         352
  C:9633H         LINE#         353
  C:9636H         LINE#         354
  C:9636H         LINE#         355
  C:963CH         LINE#         356
  C:963CH         LINE#         357
  C:9641H         LINE#         358
  C:9647H         LINE#         359
  -------         ENDPROC       ADD_SUB_HOUR_ALARM
  -------         PROC          ADD_SUB_MIN_ALARM
  X:0056H         SYMBOL        str_time
  X:005CH         SYMBOL        i
  C:9648H         LINE#         360
  C:9648H         LINE#         361
  C:9648H         LINE#         362
  C:964FH         LINE#         363
  C:964FH         LINE#         364
  C:9655H         LINE#         365
  C:9659H         LINE#         366
  C:9659H         LINE#         367
  C:965BH         LINE#         368
  C:965BH         LINE#         369
  C:965DH         LINE#         371
  C:965DH         LINE#         372
  C:9663H         LINE#         373
  C:9663H         LINE#         374
  C:9666H         LINE#         375
  C:9666H         LINE#         376
  C:966CH         LINE#         377
  C:966CH         LINE#         378
  C:9671H         LINE#         379
  C:9677H         LINE#         380
  -------         ENDPROC       ADD_SUB_MIN_ALARM
  -------         PROC          ADJUST_TIME
  -------         DO            
BL51 BANKED LINKER/LOCATER V6.22                                                      05/27/2019  15:40:45  PAGE 26


  X:0056H         SYMBOL        set_blink_flag
  -------         ENDDO         
  C:3DF8H         LINE#         382
  C:3DF8H         LINE#         383
  C:3DF8H         LINE#         384
  C:3DFDH         LINE#         385
  C:3E03H         LINE#         386
  C:3E03H         LINE#         387
  C:3E0AH         LINE#         388
  C:3E10H         LINE#         389
  C:3E10H         LINE#         390
  C:3E10H         LINE#         391
  C:3E10H         LINE#         392
  C:3E10H         LINE#         393
  C:3E10H         LINE#         394
  C:3E27H         LINE#         395
  C:3E27H         LINE#         396
  C:3E27H         LINE#         397
  C:3E33H         LINE#         398
  C:3E33H         LINE#         399
  C:3E36H         LINE#         400
  C:3E39H         LINE#         401
  C:3E3FH         LINE#         402
  C:3E3FH         LINE#         403
  C:3E42H         LINE#         404
  C:3E42H         LINE#         405
  C:3E49H         LINE#         406
  C:3E4CH         LINE#         407
  C:3E4CH         LINE#         408
  C:3E61H         LINE#         409
  C:3E61H         LINE#         410
  C:3E61H         LINE#         411
  C:3E64H         LINE#         412
  C:3E66H         LINE#         413
  C:3E66H         LINE#         414
  C:3E69H         LINE#         415
  C:3E6BH         LINE#         416
  C:3E6BH         LINE#         417
  C:3E6EH         LINE#         418
  C:3E70H         LINE#         419
  C:3E70H         LINE#         420
  C:3E73H         LINE#         421
  C:3E75H         LINE#         422
  C:3E75H         LINE#         423
  C:3E78H         LINE#         424
  C:3E78H         LINE#         425
  C:3E78H         LINE#         426
  C:3E7DH         LINE#         427
  C:3E81H         LINE#         428
  C:3E81H         LINE#         429
  C:3E81H         LINE#         430
  C:3E83H         LINE#         431
  C:3E83H         LINE#         432
  C:3E83H         LINE#         433
  C:3E86H         LINE#         434
  C:3E86H         LINE#         435
  C:3E8DH         LINE#         436
BL51 BANKED LINKER/LOCATER V6.22                                                      05/27/2019  15:40:45  PAGE 27


  C:3E90H         LINE#         437
  C:3E90H         LINE#         438
  C:3E96H         LINE#         439
  C:3E9AH         LINE#         440
  C:3E9AH         LINE#         441
  C:3E9CH         LINE#         442
  C:3EA0H         LINE#         443
  C:3EA3H         LINE#         444
  C:3EA6H         LINE#         445
  C:3EA9H         LINE#         446
  C:3EACH         LINE#         447
  C:3EACH         LINE#         448
  C:3EC1H         LINE#         449
  C:3EC1H         LINE#         450
  C:3EC1H         LINE#         451
  C:3EC4H         LINE#         452
  C:3EC7H         LINE#         453
  C:3EC9H         LINE#         454
  C:3EC9H         LINE#         455
  C:3ECCH         LINE#         456
  C:3ECFH         LINE#         457
  C:3ED1H         LINE#         458
  C:3ED1H         LINE#         459
  C:3ED4H         LINE#         460
  C:3ED7H         LINE#         461
  C:3ED9H         LINE#         462
  C:3ED9H         LINE#         463
  C:3EDCH         LINE#         464
  C:3EDFH         LINE#         465
  C:3EE1H         LINE#         466
  C:3EE1H         LINE#         467
  C:3EE4H         LINE#         468
  C:3EE7H         LINE#         469
  C:3EE7H         LINE#         470
  C:3EE7H         LINE#         471
  C:3EE7H         LINE#         472
  C:3EE7H         LINE#         473
  C:3EEDH         LINE#         474
  C:3EEDH         LINE#         475
  C:3EF4H         LINE#         476
  C:3EFAH         LINE#         477
  C:3EFAH         LINE#         478
  C:3F1BH         LINE#         479
  C:3F1BH         LINE#         480
  C:3F1BH         LINE#         481
  C:3F1EH         LINE#         482
  C:3F21H         LINE#         483
  C:3F31H         LINE#         484
  C:3F47H         LINE#         485
  C:3F4AH         LINE#         486
  C:3F4DH         LINE#         487
  C:3F4DH         LINE#         488
  C:3F50H         LINE#         489
  C:3F53H         LINE#         490
  C:3F56H         LINE#         491
  C:3F56H         LINE#         492
  C:3F59H         LINE#         493
BL51 BANKED LINKER/LOCATER V6.22                                                      05/27/2019  15:40:45  PAGE 28


  C:3F6FH         LINE#         494
  C:3F85H         LINE#         495
  C:3F88H         LINE#         496
  C:3F8BH         LINE#         497
  C:3F8BH         LINE#         498
  C:3F8EH         LINE#         499
  C:3F91H         LINE#         500
  C:3FA1H         LINE#         501
  C:3FB7H         LINE#         502
  C:3FBAH         LINE#         503
  C:3FBDH         LINE#         504
  C:3FBDH         LINE#         505
  C:3FC0H         LINE#         506
  C:3FC3H         LINE#         507
  C:3FD3H         LINE#         508
  C:3FE9H         LINE#         509
  C:3FECH         LINE#         510
  C:3FEEH         LINE#         511
  C:3FEEH         LINE#         512
  C:3FF1H         LINE#         513
  C:3FF4H         LINE#         514
  C:4004H         LINE#         515
  C:401AH         LINE#         516
  C:401DH         LINE#         517
  C:401DH         LINE#         518
  C:401DH         LINE#         519
  C:401DH         LINE#         520
  C:401DH         LINE#         521
  C:4023H         LINE#         522
  C:4023H         LINE#         523
  C:402AH         LINE#         524
  C:4030H         LINE#         525
  C:4030H         LINE#         526
  C:4051H         LINE#         527
  C:4051H         LINE#         528
  C:4051H         LINE#         529
  C:4054H         LINE#         530
  C:406FH         LINE#         531
  C:407FH         LINE#         532
  C:4095H         LINE#         533
  C:4098H         LINE#         534
  C:409BH         LINE#         535
  C:409BH         LINE#         536
  C:409EH         LINE#         537
  C:40B9H         LINE#         538
  C:40BCH         LINE#         539
  C:40BCH         LINE#         540
  C:40BFH         LINE#         541
  C:40D5H         LINE#         542
  C:40EBH         LINE#         543
  C:40EEH         LINE#         544
  C:40F1H         LINE#         545
  C:40F1H         LINE#         546
  C:40F4H         LINE#         547
  C:410FH         LINE#         548
  C:411FH         LINE#         549
  C:4135H         LINE#         550
BL51 BANKED LINKER/LOCATER V6.22                                                      05/27/2019  15:40:45  PAGE 29


  C:4138H         LINE#         551
  C:413BH         LINE#         552
  C:413BH         LINE#         553
  C:413EH         LINE#         554
  C:4159H         LINE#         555
  C:4169H         LINE#         556
  C:417FH         LINE#         557
  C:4182H         LINE#         558
  C:4185H         LINE#         559
  C:4185H         LINE#         560
  C:4188H         LINE#         561
  C:41A3H         LINE#         562
  C:41B3H         LINE#         563
  C:41C9H         LINE#         564
  C:41CCH         LINE#         565
  C:41CFH         LINE#         566
  C:41CFH         LINE#         567
  C:41CFH         LINE#         568
  C:41CFH         LINE#         569
  C:41CFH         LINE#         570
  C:41CFH         LINE#         571
  C:41D2H         LINE#         572
  C:41D2H         LINE#         573
  C:41D9H         LINE#         574
  C:41DCH         LINE#         575
  C:41DCH         LINE#         576
  C:41E7H         LINE#         577
  C:41E7H         LINE#         578
  C:41E7H         LINE#         579
  C:41EAH         LINE#         580
  C:41EDH         LINE#         581
  C:41EDH         LINE#         582
  C:41F0H         LINE#         583
  C:41F0H         LINE#         584
  C:41F0H         LINE#         585
  C:41F0H         LINE#         586
  C:41F0H         LINE#         589
  C:41F3H         LINE#         590
  C:41F3H         LINE#         591
  C:41F3H         LINE#         592
  C:41F6H         LINE#         593
  C:41F6H         LINE#         594
  C:41FDH         LINE#         595
  C:4200H         LINE#         596
  C:4200H         LINE#         597
  C:4206H         LINE#         598
  C:420AH         LINE#         599
  C:420AH         LINE#         600
  C:420CH         LINE#         601
  C:4210H         LINE#         602
  C:4213H         LINE#         605
  C:4216H         LINE#         606
  C:4216H         LINE#         607
  C:4221H         LINE#         608
  C:4221H         LINE#         609
  C:4221H         LINE#         611
  C:4224H         LINE#         612
BL51 BANKED LINKER/LOCATER V6.22                                                      05/27/2019  15:40:45  PAGE 30


  C:4226H         LINE#         613
  C:4226H         LINE#         614
  C:4229H         LINE#         615
  C:422CH         LINE#         616
  C:422CH         LINE#         617
  C:422CH         LINE#         618
  C:422CH         LINE#         619
  C:422CH         LINE#         620
  C:422FH         LINE#         621
  C:422FH         LINE#         622
  C:4236H         LINE#         623
  C:4239H         LINE#         624
  C:4239H         LINE#         625
  C:4244H         LINE#         626
  C:4244H         LINE#         627
  C:4244H         LINE#         628
  C:4247H         LINE#         629
  C:424AH         LINE#         630
  C:425AH         LINE#         631
  C:4270H         LINE#         633
  C:4273H         LINE#         634
  C:4275H         LINE#         635
  C:4275H         LINE#         636
  C:4278H         LINE#         637
  C:427BH         LINE#         638
  C:428BH         LINE#         639
  C:42A1H         LINE#         640
  C:42A4H         LINE#         641
  C:42A4H         LINE#         642
  C:42A4H         LINE#         643
  C:42A4H         LINE#         644
  C:42A4H         LINE#         645
  C:42AAH         LINE#         646
  C:42AAH         LINE#         647
  C:42B1H         LINE#         648
  C:42B7H         LINE#         649
  C:42B7H         LINE#         650
  C:42C5H         LINE#         651
  C:42C5H         LINE#         652
  C:42C5H         LINE#         653
  C:42C8H         LINE#         654
  C:42E3H         LINE#         655
  C:42F3H         LINE#         656
  C:4309H         LINE#         658
  C:430CH         LINE#         659
  C:430FH         LINE#         660
  C:430FH         LINE#         661
  C:4312H         LINE#         662
  C:432DH         LINE#         663
  C:433DH         LINE#         664
  C:4353H         LINE#         665
  C:4356H         LINE#         666
  C:4359H         LINE#         667
  C:4359H         LINE#         668
  C:4359H         LINE#         669
  C:4359H         LINE#         670
  C:4359H         LINE#         671
BL51 BANKED LINKER/LOCATER V6.22                                                      05/27/2019  15:40:45  PAGE 31


  C:4359H         LINE#         672
  C:435CH         LINE#         673
  C:435CH         LINE#         674
  C:4363H         LINE#         675
  C:4366H         LINE#         676
  C:4366H         LINE#         677
  C:4375H         LINE#         678
  C:4375H         LINE#         679
  C:4375H         LINE#         680
  C:4378H         LINE#         681
  C:437AH         LINE#         682
  C:437AH         LINE#         683
  C:437DH         LINE#         684
  C:437FH         LINE#         685
  C:437FH         LINE#         686
  C:4382H         LINE#         687
  C:4382H         LINE#         688
  C:4382H         LINE#         689
  C:4387H         LINE#         690
  C:438BH         LINE#         693
  C:438EH         LINE#         694
  C:438EH         LINE#         695
  C:438EH         LINE#         696
  C:4391H         LINE#         697
  C:4391H         LINE#         698
  C:4398H         LINE#         699
  C:439BH         LINE#         700
  C:439BH         LINE#         701
  C:43A1H         LINE#         703
  C:43A5H         LINE#         704
  C:43A5H         LINE#         705
  C:43A7H         LINE#         707
  C:43AAH         LINE#         710
  C:43ADH         LINE#         711
  C:43ADH         LINE#         712
  C:43BCH         LINE#         713
  C:43BCH         LINE#         714
  C:43BCH         LINE#         716
  C:43BFH         LINE#         717
  C:43C1H         LINE#         718
  C:43C1H         LINE#         719
  C:43C4H         LINE#         720
  C:43C7H         LINE#         721
  C:43C9H         LINE#         722
  C:43C9H         LINE#         723
  C:43CCH         LINE#         724
  C:43CFH         LINE#         725
  C:43CFH         LINE#         726
  C:43CFH         LINE#         727
  C:43CFH         LINE#         728
  C:43CFH         LINE#         729
  C:43D5H         LINE#         730
  C:43D5H         LINE#         731
  C:43DCH         LINE#         732
  C:43E2H         LINE#         733
  C:43E2H         LINE#         734
  C:43F4H         LINE#         735
BL51 BANKED LINKER/LOCATER V6.22                                                      05/27/2019  15:40:45  PAGE 32


  C:43F4H         LINE#         736
  C:43F4H         LINE#         737
  C:43F7H         LINE#         738
  C:43FAH         LINE#         739
  C:440AH         LINE#         740
  C:4420H         LINE#         741
  C:4423H         LINE#         742
  C:4426H         LINE#         743
  C:4426H         LINE#         744
  C:4429H         LINE#         745
  C:442CH         LINE#         746
  C:442FH         LINE#         747
  C:442FH         LINE#         748
  C:4432H         LINE#         749
  C:4448H         LINE#         750
  C:445EH         LINE#         751
  C:4461H         LINE#         752
  C:4463H         LINE#         753
  C:4463H         LINE#         754
  C:4466H         LINE#         755
  C:4469H         LINE#         756
  C:4479H         LINE#         757
  C:448FH         LINE#         758
  C:4492H         LINE#         759
  C:4492H         LINE#         760
  C:4492H         LINE#         761
  C:4492H         LINE#         762
  C:4492H         LINE#         763
  C:4498H         LINE#         764
  C:4498H         LINE#         765
  C:449FH         LINE#         766
  C:44A5H         LINE#         767
  C:44A5H         LINE#         768
  C:44BAH         LINE#         769
  C:44BAH         LINE#         770
  C:44BAH         LINE#         771
  C:44BDH         LINE#         772
  C:44D8H         LINE#         773
  C:44E8H         LINE#         774
  C:44FEH         LINE#         775
  C:4501H         LINE#         776
  C:4504H         LINE#         777
  C:4504H         LINE#         778
  C:4507H         LINE#         779
  C:4522H         LINE#         780
  C:4525H         LINE#         781
  C:4525H         LINE#         782
  C:4528H         LINE#         783
  C:453EH         LINE#         784
  C:4554H         LINE#         785
  C:4557H         LINE#         786
  C:4559H         LINE#         787
  C:4559H         LINE#         788
  C:455CH         LINE#         789
  C:4577H         LINE#         790
  C:4587H         LINE#         791
  C:459DH         LINE#         792
BL51 BANKED LINKER/LOCATER V6.22                                                      05/27/2019  15:40:45  PAGE 33


  C:45A0H         LINE#         793
  C:45A0H         LINE#         794
  C:45A0H         LINE#         795
  C:45A0H         LINE#         796
  C:45A0H         LINE#         800
  C:45A0H         LINE#         801
  C:45A0H         LINE#         802
  C:45B2H         LINE#         803
  C:45B2H         LINE#         804
  C:45BAH         LINE#         805
  C:45BAH         LINE#         806
  C:45C8H         LINE#         807
  C:45CFH         LINE#         808
  C:45D2H         LINE#         809
  C:45D9H         LINE#         810
  C:45DCH         LINE#         811
  C:45E3H         LINE#         812
  C:45F9H         LINE#         813
  C:45F9H         LINE#         814
  C:45F9H         LINE#         815
  C:45F9H         LINE#         816
  C:45F9H         LINE#         817
  C:45F9H         LINE#         818
  C:45F9H         LINE#         819
  -------         ENDPROC       ADJUST_TIME
  -------         ENDMOD        DS1302

  -------         MODULE        IIC
  C:0000H         SYMBOL        _ICE_DUMMY_
  D:0090H         PUBLIC        P1
  D:00A0H         PUBLIC        P2
  D:00B0H         PUBLIC        P3
  C:9D55H         PUBLIC        noack
  C:9D1AH         PUBLIC        delay
  C:97EFH         PUBLIC        ack
  C:9D4DH         PUBLIC        start
  C:9D43H         PUBLIC        stop
  C:99A2H         PUBLIC        _read_IIC
  B:0090H.4       PUBLIC        SDA
  B:0090H.3       PUBLIC        SCL
  C:9C90H         PUBLIC        _write_IIC
  C:979DH         PUBLIC        IIC_read_byte
  C:9D39H         PUBLIC        init_IIC
  C:972BH         PUBLIC        _IIC_write_byte
  C:9D15H         SYMBOL        L?0024
  -------         PROC          L?0023
  -------         ENDPROC       L?0023
  C:9D15H         SYMBOL        L?0024
  -------         PROC          DELAY
  C:9D1AH         LINE#         15
  C:9D1AH         LINE#         16
  C:9D1AH         LINE#         17
  C:9D1CH         LINE#         18
  C:9D1EH         LINE#         19
  C:9D20H         LINE#         21
  -------         ENDPROC       DELAY
  -------         PROC          INIT_IIC
BL51 BANKED LINKER/LOCATER V6.22                                                      05/27/2019  15:40:45  PAGE 34


  C:9D39H         LINE#         28
  C:9D39H         LINE#         29
  C:9D39H         LINE#         30
  C:9D3BH         LINE#         31
  C:9D3EH         LINE#         32
  C:9D40H         LINE#         33
  -------         ENDPROC       INIT_IIC
  -------         PROC          START
  C:9D4DH         LINE#         41
  C:9D4DH         LINE#         42
  C:9D4DH         LINE#         43
  C:9D4DH         LINE#         44
  C:9D4DH         LINE#         45
  C:9D4DH         LINE#         46
  C:9D50H         LINE#         47
  C:9D52H         LINE#         48
  -------         ENDPROC       START
  -------         PROC          STOP
  C:9D43H         LINE#         56
  C:9D43H         LINE#         57
  C:9D43H         LINE#         58
  C:9D45H         LINE#         59
  C:9D45H         LINE#         60
  C:9D45H         LINE#         61
  C:9D48H         LINE#         62
  C:9D4AH         LINE#         63
  -------         ENDPROC       STOP
  -------         PROC          L?0022
  -------         ENDPROC       L?0022
  -------         PROC          ACK
  -------         DO            
  D:0007H         SYMBOL        i
  -------         ENDDO         
  C:97EFH         LINE#         72
  C:97EFH         LINE#         73
  C:97EFH         LINE#         74
  C:97F1H         LINE#         75
  C:97F3H         LINE#         76
  C:97F6H         LINE#         77
  C:97FFH         LINE#         78
  C:97FFH         LINE#         79
  C:9800H         LINE#         80
  C:9802H         LINE#         81
  C:9804H         LINE#         82
  -------         ENDPROC       ACK
  -------         PROC          NOACK
  C:9D55H         LINE#         90
  C:9D55H         LINE#         91
  C:9D55H         LINE#         92
  C:9D55H         LINE#         93
  C:9D55H         LINE#         94
  C:9D55H         LINE#         95
  C:9D58H         LINE#         96
  C:9D5AH         LINE#         97
  -------         ENDPROC       NOACK
  -------         PROC          _IIC_WRITE_BYTE
  D:0007H         SYMBOL        dat
BL51 BANKED LINKER/LOCATER V6.22                                                      05/27/2019  15:40:45  PAGE 35


  -------         DO            
  D:0006H         SYMBOL        i
  D:0007H         SYMBOL        tmp
  -------         ENDDO         
  C:972BH         LINE#         105
  C:972BH         LINE#         106
  C:972BH         LINE#         108
  C:972BH         LINE#         109
  C:972DH         LINE#         110
  C:972DH         LINE#         111
  C:972FH         LINE#         112
  C:9732H         LINE#         113
  C:9736H         LINE#         114
  C:9736H         LINE#         115
  C:9738H         LINE#         116
  C:973AH         LINE#         118
  C:973AH         LINE#         119
  C:973CH         LINE#         120
  C:973CH         LINE#         121
  C:9740H         LINE#         122
  C:9740H         LINE#         123
  C:9740H         LINE#         124
  C:9743H         LINE#         125
  C:9748H         LINE#         126
  C:974AH         LINE#         127
  C:974DH         LINE#         128
  C:974FH         LINE#         129
  -------         ENDPROC       _IIC_WRITE_BYTE
  -------         PROC          IIC_READ_BYTE
  -------         DO            
  D:0006H         SYMBOL        i
  D:0007H         SYMBOL        dat
  -------         ENDDO         
  C:979DH         LINE#         137
  C:979DH         LINE#         138
  C:979DH         LINE#         140
  C:979FH         LINE#         141
  C:97A2H         LINE#         142
  C:97A4H         LINE#         143
  C:97A7H         LINE#         144
  C:97A9H         LINE#         145
  C:97A9H         LINE#         146
  C:97ABH         LINE#         147
  C:97AEH         LINE#         148
  C:97B2H         LINE#         149
  C:97B5H         LINE#         150
  C:97B5H         LINE#         151
  C:97B6H         LINE#         152
  C:97B6H         LINE#         153
  C:97B8H         LINE#         154
  C:97BBH         LINE#         155
  C:97C0H         LINE#         156
  C:97C0H         LINE#         157
  -------         ENDPROC       IIC_READ_BYTE
  -------         PROC          _WRITE_IIC
  D:0004H         SYMBOL        addr
  D:0005H         SYMBOL        dat
BL51 BANKED LINKER/LOCATER V6.22                                                      05/27/2019  15:40:45  PAGE 36


  C:9C90H         LINE#         164
  C:9C92H         LINE#         165
  C:9C92H         LINE#         166
  C:9C95H         LINE#         167
  C:9C9AH         LINE#         168
  C:9C9DH         LINE#         169
  C:9C9FH         LINE#         170
  C:9C9FH         LINE#         171
  C:9C9FH         LINE#         172
  C:9CA2H         LINE#         173
  -------         ENDPROC       _WRITE_IIC
  -------         PROC          _READ_IIC
  D:0005H         SYMBOL        add
  -------         DO            
  D:0007H         SYMBOL        temp
  -------         ENDDO         
  C:99A2H         LINE#         181
  C:99A4H         LINE#         182
  C:99A4H         LINE#         184
  C:99A7H         LINE#         185
  C:99A9H         LINE#         186
  C:99A9H         LINE#         187
  C:99A9H         LINE#         188
  C:99ACH         LINE#         189
  C:99AFH         LINE#         190
  C:99B4H         LINE#         191
  C:99B7H         LINE#         192
  C:99BAH         LINE#         193
  C:99BDH         LINE#         194
  C:99C0H         LINE#         195
  C:99C0H         LINE#         196
  -------         ENDPROC       _READ_IIC
  -------         ENDMOD        IIC

  -------         MODULE        DS18B20
  C:0000H         SYMBOL        _ICE_DUMMY_
  D:0090H         PUBLIC        P1
  D:00A0H         PUBLIC        P2
  D:00B0H         PUBLIC        P3
  B:00A8H.7       PUBLIC        EA
  C:92B8H         PUBLIC        _read_temper
  B:00B0H.7       PUBLIC        DQ
  C:9484H         PUBLIC        master_reset
  C:9523H         PUBLIC        sing_read_byte
  C:9C08H         PUBLIC        sing_read_bit
  C:9306H         PUBLIC        _sing_write_byte
  C:9CCFH         PUBLIC        temper_convert
  -------         PROC          MASTER_RESET
  -------         DO            
  D:0006H         SYMBOL        i
  -------         ENDDO         
  C:9484H         LINE#         16
  C:9484H         LINE#         17
  C:9484H         LINE#         18
  C:9486H         LINE#         20
  C:9488H         LINE#         21
  C:948AH         LINE#         22
BL51 BANKED LINKER/LOCATER V6.22                                                      05/27/2019  15:40:45  PAGE 37


  C:948FH         LINE#         24
  C:9491H         LINE#         26
  C:9495H         LINE#         27
  C:9498H         LINE#         28
  C:9498H         LINE#         29
  C:94A2H         LINE#         30
  C:94A2H         LINE#         33
  C:94A6H         LINE#         34
  C:94A9H         LINE#         35
  C:94A9H         LINE#         36
  C:94B3H         LINE#         37
  C:94B3H         LINE#         39
  C:94B8H         LINE#         40
  C:94BAH         LINE#         41
  -------         ENDPROC       MASTER_RESET
  -------         PROC          SING_READ_BIT
  -------         DO            
  B:0020H.4       SYMBOL        b
  -------         ENDDO         
  C:9C08H         LINE#         48
  C:9C08H         LINE#         49
  C:9C08H         LINE#         50
  C:9C0AH         LINE#         52
  C:9C0CH         LINE#         53
  C:9C0DH         LINE#         54
  C:9C0FH         LINE#         55
  C:9C14H         LINE#         56
  C:9C18H         LINE#         57
  C:9C1DH         LINE#         58
  C:9C1FH         LINE#         59
  -------         ENDPROC       SING_READ_BIT
  -------         PROC          SING_READ_BYTE
  -------         DO            
  X:006CH         SYMBOL        i
  D:0004H         SYMBOL        j
  X:006DH         SYMBOL        b
  -------         ENDDO         
  C:9523H         LINE#         66
  C:9523H         LINE#         67
  C:9523H         LINE#         69
  C:9528H         LINE#         70
  C:952DH         LINE#         71
  C:952DH         LINE#         72
  C:9533H         LINE#         73
  C:9542H         LINE#         74
  C:954EH         LINE#         75
  C:9553H         LINE#         76
  -------         ENDPROC       SING_READ_BYTE
  -------         PROC          _SING_WRITE_BYTE
  D:0001H         SYMBOL        b
  -------         DO            
  D:0002H         SYMBOL        i
  D:0007H         SYMBOL        j
  B:0020H.4       SYMBOL        btmp
  -------         ENDDO         
  C:9306H         LINE#         83
  C:9308H         LINE#         84
BL51 BANKED LINKER/LOCATER V6.22                                                      05/27/2019  15:40:45  PAGE 38


  C:9308H         LINE#         88
  C:930AH         LINE#         89
  C:930AH         LINE#         90
  C:930EH         LINE#         91
  C:9312H         LINE#         92
  C:9315H         LINE#         93
  C:9315H         LINE#         95
  C:9317H         LINE#         96
  C:931FH         LINE#         97
  C:9321H         LINE#         98
  C:9325H         LINE#         99
  C:9330H         LINE#         100
  C:9330H         LINE#         102
  C:9330H         LINE#         104
  C:9332H         LINE#         105
  C:9336H         LINE#         106
  C:933FH         LINE#         107
  C:9341H         LINE#         108
  C:9346H         LINE#         109
  C:934BH         LINE#         110
  C:934BH         LINE#         111
  C:9350H         LINE#         112
  -------         ENDPROC       _SING_WRITE_BYTE
  -------         PROC          TEMPER_CONVERT
  C:9CCFH         LINE#         119
  C:9CCFH         LINE#         120
  C:9CCFH         LINE#         121
  C:9CD1H         LINE#         122
  C:9CD4H         LINE#         123
  C:9CD9H         LINE#         124
  C:9CDEH         LINE#         125
  C:9CE0H         LINE#         126
  -------         ENDPROC       TEMPER_CONVERT
  -------         PROC          _READ_TEMPER
  X:0068H         SYMBOL        pbuff
  -------         DO            
  X:006BH         SYMBOL        tplsb
  D:0007H         SYMBOL        tpmsb
  -------         ENDDO         
  C:92B8H         LINE#         133
  C:92BEH         LINE#         134
  C:92BEH         LINE#         136
  C:92C0H         LINE#         137
  C:92C3H         LINE#         138
  C:92C8H         LINE#         139
  C:92CDH         LINE#         140
  C:92D5H         LINE#         141
  C:92D8H         LINE#         142
  C:92DAH         LINE#         144
  C:92F2H         LINE#         145
  -------         ENDPROC       _READ_TEMPER
  -------         ENDMOD        DS18B20

  -------         MODULE        HB
  C:0000H         SYMBOL        _ICE_DUMMY_
  B:0020H.7       PUBLIC        c_moon
  D:0080H         PUBLIC        P0
BL51 BANKED LINKER/LOCATER V6.22                                                      05/27/2019  15:40:45  PAGE 39


  C:8296H         PUBLIC        hb_show_time
  D:0090H         PUBLIC        P1
  D:00A0H         PUBLIC        P2
  C:9360H         PUBLIC        hb_show_year
  D:00B0H         PUBLIC        P3
  C:8C51H         PUBLIC        hb_show_big_date
  C:84FAH         PUBLIC        calculate_day_num
  C:4DA1H         PUBLIC        show_festival
  C:7E37H         PUBLIC        welcome_init
  C:7F2CH         PUBLIC        _hb_show_temp
  C:9678H         PUBLIC        _Int_to_Str
  C:8AE2H         PUBLIC        hb_show_sec
  C:8BD8H         PUBLIC        hb_show_big_month
  C:8367H         PUBLIC        show_lunar_festival
  C:89E6H         PUBLIC        hb_show_hour
  C:9C4EH         PUBLIC        hb_show_big_week
  C:0003H         PUBLIC        clean_alarm_all
  C:8E89H         PUBLIC        hb_show_min
  C:99C1H         PUBLIC        _hex_to_bcd
  C:9870H         PUBLIC        start_blink_alarm
  C:8B5FH         PUBLIC        hb_show_big_year
  C:9003H         PUBLIC        _clean_alarm_day
  C:17D3H         PUBLIC        num_big2
  C:0E69H         PUBLIC        table_week
  C:800FH         PUBLIC        _hb_show_big_temp
  C:8A65H         PUBLIC        draw_frame
  C:734DH         PUBLIC        hb_show_big_sec
  C:67C5H         PUBLIC        _judge_leap_month
  C:8FA5H         PUBLIC        clean_all
  C:5D09H         PUBLIC        sun_to_lunar
  C:8CCAH         PUBLIC        hb_show_big_hour
  C:9B5FH         PUBLIC        start_blink_date
  C:7D38H         PUBLIC        cal_jieqi
  C:8D43H         PUBLIC        hb_show_big_min
  C:867BH         PUBLIC        hb_show_big_date_only
  C:98E5H         PUBLIC        _send
  C:2039H         PUBLIC        date_conj
  C:9893H         PUBLIC        stop_blink_alarm
  C:02C3H         PUBLIC        jieqi_tab
  C:59C3H         PUBLIC        _show_choose_music
  C:9B42H         PUBLIC        start_blink_month
  C:0C23H         PUBLIC        year_code
  C:9CE1H         PUBLIC        _cur_pos2
  C:993FH         PUBLIC        clean_set
  C:9CBAH         PUBLIC        show_alarm
  C:87B6H         PUBLIC        _start_blink_week
  C:6279H         PUBLIC        show_jieqi
  C:9B25H         PUBLIC        start_blink_year
  C:90BBH         PUBLIC        hb_show_big_time_only
  C:9A3AH         PUBLIC        start_blink_big_date
  C:9BD1H         PUBLIC        stop_blink_date
  C:78A1H         PUBLIC        _show_volume
  C:9A1CH         PUBLIC        start_blink_big_month
  C:91C4H         PUBLIC        show_date
  B:00B0H.5       PUBLIC        BUSY
  B:0021H.0       PUBLIC        lunar_day
  C:9C20H         PUBLIC        start_blink_hour
BL51 BANKED LINKER/LOCATER V6.22                                                      05/27/2019  15:40:45  PAGE 40


  C:9BB5H         PUBLIC        stop_blink_month
  C:9B08H         PUBLIC        clean_big_set
  C:562CH         PUBLIC        _show_lunar
  C:8DBCH         PUBLIC        _stop_blink_week
  C:9A58H         PUBLIC        start_blink_min
  C:99FEH         PUBLIC        start_blink_big_year
  C:991DH         PUBLIC        clean_festivel
  C:1587H         PUBLIC        volume2
  C:1343H         PUBLIC        num_volume
  C:94BBH         PUBLIC        _show_alarm_all
  C:9B99H         PUBLIC        stop_blink_year
  C:9AEBH         PUBLIC        stop_blink_big_date
  C:1DCDH         PUBLIC        num_date
  C:9981H         PUBLIC        set_start_blink
  C:7B0EH         PUBLIC        calculate_day
  C:80EAH         PUBLIC        _show_alarm_day
  C:9ACEH         PUBLIC        stop_blink_big_month
  C:9807H         PUBLIC        start_blink_big_hour
  C:897CH         PUBLIC        _Display_Bmp
  C:9BEDH         PUBLIC        stop_blink_hour
  C:982AH         PUBLIC        start_blink_big_min
  C:9564H         PUBLIC        _Display_Lin
  C:9778H         PUBLIC        hb_init
  C:9B7CH         PUBLIC        stop_blink_min
  C:9AB1H         PUBLIC        stop_blink_big_year
  C:9A9BH         PUBLIC        _Delay_1ms
  C:0E75H         PUBLIC        num_big
  C:9D70H         PUBLIC        _Screen_Con
  C:9278H         PUBLIC        Conver_jieqi
  B:00B0H.4       PUBLIC        REQ
  C:9960H         PUBLIC        set_stop_blink
  C:0E5AH         PUBLIC        day_code1
  C:0E63H         PUBLIC        day_code2
  C:95C4H         PUBLIC        hb_show_date
  C:1175H         PUBLIC        welcome
  C:98FBH         PUBLIC        stop_blink_big_hour
  C:9CA5H         PUBLIC        show_set
  C:69EBH         PUBLIC        cal_festival
  C:984DH         PUBLIC        stop_blink_big_min
  C:941EH         PUBLIC        _Display_StrChar
  C:1787H         PUBLIC        maohao
  C:9593H         PUBLIC        hb_show_month
  C:71B7H         PUBLIC        show_time_only
  C:763AH         PUBLIC        _get_moon_day
  C:9C64H         PUBLIC        hb_show_week
  C:9A97H         SYMBOL        L?0702
  -------         PROC          L?0701
  -------         ENDPROC       L?0701
  C:9A97H         SYMBOL        L?0702
  -------         PROC          _DELAY_1MS
  D:0006H         SYMBOL        j
  -------         DO            
  D:0005H         SYMBOL        i
  -------         ENDDO         
  C:9A9BH         LINE#         691
  C:9A9BH         LINE#         692
  C:9A9BH         LINE#         694
BL51 BANKED LINKER/LOCATER V6.22                                                      05/27/2019  15:40:45  PAGE 41


  C:9AA5H         LINE#         695
  C:9AA5H         LINE#         696
  C:9AB0H         LINE#         697
  C:9AB0H         LINE#         698
  -------         ENDPROC       _DELAY_1MS
  C:98D9H         SYMBOL        L?0691
  C:98DBH         SYMBOL        L?0692
  C:98DFH         SYMBOL        L?0693
  C:98E0H         SYMBOL        L?0694
  -------         PROC          L?0690
  -------         ENDPROC       L?0690
  C:98D9H         SYMBOL        L?0691
  C:98DBH         SYMBOL        L?0692
  C:98DFH         SYMBOL        L?0693
  C:98E0H         SYMBOL        L?0694
  -------         PROC          _SEND
  D:0007H         SYMBOL        ch
  C:98E5H         LINE#         700
  C:98E5H         LINE#         701
  C:98E5H         LINE#         702
  C:98E8H         LINE#         703
  C:98EAH         LINE#         704
  C:98ECH         LINE#         705
  C:98F0H         LINE#         706
  C:98F4H         LINE#         707
  C:98F8H         LINE#         708
  C:98FAH         LINE#         709
  -------         ENDPROC       _SEND
  -------         PROC          _SCREEN_CON
  D:0007H         SYMBOL        command
  C:9D70H         LINE#         712
  C:9D70H         LINE#         713
  C:9D70H         LINE#         714
  -------         ENDPROC       _SCREEN_CON
  C:9412H         SYMBOL        L?0688
  C:941AH         SYMBOL        L?0689
  -------         PROC          L?0687
  -------         ENDPROC       L?0687
  C:9412H         SYMBOL        L?0688
  C:941AH         SYMBOL        L?0689
  -------         PROC          _DISPLAY_STRCHAR
  D:0007H         SYMBOL        command
  D:0005H         SYMBOL        x
  D:0003H         SYMBOL        y
  X:007AH         SYMBOL        p
  C:941EH         LINE#         717
  C:941EH         LINE#         718
  C:941EH         LINE#         719
  C:9421H         LINE#         720
  C:9426H         LINE#         721
  C:942BH         LINE#         722
  C:9437H         LINE#         723
  C:9437H         LINE#         724
  C:943AH         LINE#         725
  C:9444H         LINE#         726
  C:9446H         LINE#         727
  -------         ENDPROC       _DISPLAY_STRCHAR
BL51 BANKED LINKER/LOCATER V6.22                                                      05/27/2019  15:40:45  PAGE 42


  -------         PROC          _CUR_POS2
  D:0006H         SYMBOL        x
  D:0005H         SYMBOL        y
  C:9CE1H         LINE#         731
  C:9CE3H         LINE#         732
  C:9CE3H         LINE#         733
  C:9CE8H         LINE#         734
  C:9CEDH         LINE#         735
  -------         ENDPROC       _CUR_POS2
  -------         PROC          START_BLINK_BIG_HOUR
  C:9807H         LINE#         738
  C:9807H         LINE#         739
  C:9807H         LINE#         740
  C:980CH         LINE#         741
  C:9811H         LINE#         742
  C:9816H         LINE#         743
  C:981BH         LINE#         744
  C:9820H         LINE#         745
  C:9825H         LINE#         746
  -------         ENDPROC       START_BLINK_BIG_HOUR
  -------         PROC          STOP_BLINK_BIG_HOUR
  C:98FBH         LINE#         748
  C:98FBH         LINE#         749
  C:98FBH         LINE#         750
  C:9900H         LINE#         751
  C:9905H         LINE#         752
  C:990AH         LINE#         753
  C:990FH         LINE#         754
  C:9914H         LINE#         755
  C:9918H         LINE#         756
  -------         ENDPROC       STOP_BLINK_BIG_HOUR
  -------         PROC          START_BLINK_BIG_MIN
  C:982AH         LINE#         758
  C:982AH         LINE#         759
  C:982AH         LINE#         760
  C:982FH         LINE#         761
  C:9834H         LINE#         762
  C:9839H         LINE#         763
  C:983EH         LINE#         764
  C:9843H         LINE#         765
  C:9848H         LINE#         766
  -------         ENDPROC       START_BLINK_BIG_MIN
  -------         PROC          STOP_BLINK_BIG_MIN
  C:984DH         LINE#         768
  C:984DH         LINE#         769
  C:984DH         LINE#         770
  C:9852H         LINE#         771
  C:9857H         LINE#         772
  C:985CH         LINE#         773
  C:9861H         LINE#         774
  C:9866H         LINE#         775
  C:986BH         LINE#         776
  -------         ENDPROC       STOP_BLINK_BIG_MIN
  -------         PROC          START_BLINK_BIG_YEAR
  C:99FEH         LINE#         778
  C:99FEH         LINE#         779
  C:99FEH         LINE#         780
BL51 BANKED LINKER/LOCATER V6.22                                                      05/27/2019  15:40:45  PAGE 43


  C:9A03H         LINE#         781
  C:9A08H         LINE#         782
  C:9A0DH         LINE#         783
  C:9A0FH         LINE#         784
  C:9A12H         LINE#         785
  C:9A17H         LINE#         786
  -------         ENDPROC       START_BLINK_BIG_YEAR
  -------         PROC          STOP_BLINK_BIG_YEAR
  C:9AB1H         LINE#         788
  C:9AB1H         LINE#         789
  C:9AB1H         LINE#         790
  C:9AB6H         LINE#         791
  C:9ABBH         LINE#         792
  C:9AC0H         LINE#         793
  C:9AC2H         LINE#         794
  C:9AC5H         LINE#         795
  C:9AC9H         LINE#         796
  -------         ENDPROC       STOP_BLINK_BIG_YEAR
  -------         PROC          START_BLINK_BIG_MONTH
  C:9A1CH         LINE#         798
  C:9A1CH         LINE#         799
  C:9A1CH         LINE#         800
  C:9A21H         LINE#         801
  C:9A26H         LINE#         802
  C:9A2BH         LINE#         803
  C:9A2DH         LINE#         804
  C:9A30H         LINE#         805
  C:9A35H         LINE#         806
  -------         ENDPROC       START_BLINK_BIG_MONTH
  -------         PROC          STOP_BLINK_BIG_MONTH
  C:9ACEH         LINE#         808
  C:9ACEH         LINE#         809
  C:9ACEH         LINE#         810
  C:9AD3H         LINE#         811
  C:9AD8H         LINE#         812
  C:9ADDH         LINE#         813
  C:9ADFH         LINE#         814
  C:9AE2H         LINE#         815
  C:9AE6H         LINE#         816
  -------         ENDPROC       STOP_BLINK_BIG_MONTH
  -------         PROC          START_BLINK_BIG_DATE
  C:9A3AH         LINE#         818
  C:9A3AH         LINE#         819
  C:9A3AH         LINE#         820
  C:9A3FH         LINE#         821
  C:9A44H         LINE#         822
  C:9A49H         LINE#         823
  C:9A4BH         LINE#         824
  C:9A4EH         LINE#         825
  C:9A53H         LINE#         826
  -------         ENDPROC       START_BLINK_BIG_DATE
  -------         PROC          STOP_BLINK_BIG_DATE
  C:9AEBH         LINE#         828
  C:9AEBH         LINE#         829
  C:9AEBH         LINE#         830
  C:9AF0H         LINE#         831
  C:9AF5H         LINE#         832
BL51 BANKED LINKER/LOCATER V6.22                                                      05/27/2019  15:40:45  PAGE 44


  C:9AFAH         LINE#         833
  C:9AFCH         LINE#         834
  C:9AFFH         LINE#         835
  C:9B03H         LINE#         836
  -------         ENDPROC       STOP_BLINK_BIG_DATE
  -------         PROC          CLEAN_BIG_SET
  C:9B08H         LINE#         838
  C:9B08H         LINE#         839
  C:9B08H         LINE#         840
  C:9B0DH         LINE#         841
  C:9B12H         LINE#         842
  C:9B16H         LINE#         843
  C:9B1BH         LINE#         844
  C:9B1DH         LINE#         845
  C:9B20H         LINE#         846
  -------         ENDPROC       CLEAN_BIG_SET
  -------         PROC          START_BLINK_YEAR
  C:9B25H         LINE#         849
  C:9B25H         LINE#         850
  C:9B25H         LINE#         851
  C:9B2AH         LINE#         852
  C:9B2FH         LINE#         853
  C:9B33H         LINE#         854
  C:9B38H         LINE#         855
  C:9B3AH         LINE#         856
  C:9B3DH         LINE#         857
  -------         ENDPROC       START_BLINK_YEAR
  -------         PROC          STOP_BLINK_YEAR
  C:9B99H         LINE#         859
  C:9B99H         LINE#         860
  C:9B99H         LINE#         861
  C:9B9EH         LINE#         862
  C:9BA3H         LINE#         863
  C:9BA6H         LINE#         864
  C:9BABH         LINE#         865
  C:9BADH         LINE#         866
  C:9BB0H         LINE#         867
  -------         ENDPROC       STOP_BLINK_YEAR
  -------         PROC          START_BLINK_MONTH
  C:9B42H         LINE#         869
  C:9B42H         LINE#         870
  C:9B42H         LINE#         871
  C:9B47H         LINE#         872
  C:9B4CH         LINE#         873
  C:9B50H         LINE#         874
  C:9B55H         LINE#         875
  C:9B57H         LINE#         876
  C:9B5AH         LINE#         877
  -------         ENDPROC       START_BLINK_MONTH
  -------         PROC          STOP_BLINK_MONTH
  C:9BB5H         LINE#         879
  C:9BB5H         LINE#         880
  C:9BB5H         LINE#         881
  C:9BBAH         LINE#         882
  C:9BBFH         LINE#         883
  C:9BC2H         LINE#         884
  C:9BC7H         LINE#         885
BL51 BANKED LINKER/LOCATER V6.22                                                      05/27/2019  15:40:45  PAGE 45


  C:9BC9H         LINE#         886
  C:9BCCH         LINE#         887
  -------         ENDPROC       STOP_BLINK_MONTH
  -------         PROC          START_BLINK_DATE
  C:9B5FH         LINE#         890
  C:9B5FH         LINE#         891
  C:9B5FH         LINE#         892
  C:9B64H         LINE#         893
  C:9B69H         LINE#         894
  C:9B6DH         LINE#         895
  C:9B72H         LINE#         896
  C:9B74H         LINE#         897
  C:9B77H         LINE#         898
  -------         ENDPROC       START_BLINK_DATE
  -------         PROC          STOP_BLINK_DATE
  C:9BD1H         LINE#         901
  C:9BD1H         LINE#         902
  C:9BD1H         LINE#         903
  C:9BD6H         LINE#         904
  C:9BDBH         LINE#         905
  C:9BDEH         LINE#         906
  C:9BE3H         LINE#         907
  C:9BE5H         LINE#         908
  C:9BE8H         LINE#         909
  -------         ENDPROC       STOP_BLINK_DATE
  -------         PROC          START_BLINK_MIN
  C:9A58H         LINE#         911
  C:9A58H         LINE#         912
  C:9A58H         LINE#         913
  C:9A5DH         LINE#         914
  C:9A62H         LINE#         915
  C:9A67H         LINE#         916
  C:9A69H         LINE#         917
  C:9A6CH         LINE#         918
  C:9A71H         LINE#         919
  -------         ENDPROC       START_BLINK_MIN
  -------         PROC          START_BLINK_HOUR
  C:9C20H         LINE#         922
  C:9C20H         LINE#         923
  C:9C20H         LINE#         924
  C:9C25H         LINE#         925
  C:9C2AH         LINE#         926
  C:9C2CH         LINE#         927
  C:9C2CH         LINE#         928
  C:9C2FH         LINE#         929
  C:9C33H         LINE#         930
  -------         ENDPROC       START_BLINK_HOUR
  -------         PROC          STOP_BLINK_HOUR
  C:9BEDH         LINE#         932
  C:9BEDH         LINE#         933
  C:9BEDH         LINE#         934
  C:9BF2H         LINE#         935
  C:9BF7H         LINE#         936
  C:9BFCH         LINE#         937
  C:9BFCH         LINE#         938
  C:9BFFH         LINE#         939
  C:9C03H         LINE#         940
BL51 BANKED LINKER/LOCATER V6.22                                                      05/27/2019  15:40:45  PAGE 46


  -------         ENDPROC       STOP_BLINK_HOUR
  -------         PROC          STOP_BLINK_MIN
  C:9B7CH         LINE#         942
  C:9B7CH         LINE#         943
  C:9B7CH         LINE#         944
  C:9B81H         LINE#         945
  C:9B86H         LINE#         946
  C:9B8BH         LINE#         947
  C:9B8DH         LINE#         948
  C:9B90H         LINE#         949
  C:9B94H         LINE#         950
  -------         ENDPROC       STOP_BLINK_MIN
  C:8978H         SYMBOL        L?0700
  -------         PROC          L?0699
  -------         ENDPROC       L?0699
  C:8978H         SYMBOL        L?0700
  -------         PROC          _DISPLAY_BMP
  D:0001H         SYMBOL        command
  D:0005H         SYMBOL        x
  D:0003H         SYMBOL        y
  X:0079H         SYMBOL        len
  X:007AH         SYMBOL        high
  X:007BH         SYMBOL        p
  -------         DO            
  X:007EH         SYMBOL        tmp
  D:0004H         SYMBOL        i
  -------         ENDDO         
  C:897CH         LINE#         956
  C:897EH         LINE#         957
  C:897EH         LINE#         960
  C:8994H         LINE#         961
  C:8999H         LINE#         962
  C:899EH         LINE#         963
  C:89A3H         LINE#         964
  C:89ABH         LINE#         965
  C:89B1H         LINE#         966
  C:89C7H         LINE#         967
  C:89C7H         LINE#         968
  C:89D4H         LINE#         969
  C:89DEH         LINE#         970
  C:89E5H         LINE#         971
  -------         ENDPROC       _DISPLAY_BMP
  -------         PROC          L?0703
  -------         ENDPROC       L?0703
  -------         PROC          _DISPLAY_LIN
  D:0007H         SYMBOL        command
  D:0005H         SYMBOL        x
  D:0003H         SYMBOL        y
  X:005AH         SYMBOL        typ1
  X:005BH         SYMBOL        typ2
  X:005CH         SYMBOL        len
  C:9564H         LINE#         972
  C:9564H         LINE#         973
  C:9564H         LINE#         974
  C:9567H         LINE#         975
  C:956CH         LINE#         976
  C:9571H         LINE#         977
BL51 BANKED LINKER/LOCATER V6.22                                                      05/27/2019  15:40:45  PAGE 47


  C:9579H         LINE#         978
  C:957FH         LINE#         979
  -------         ENDPROC       _DISPLAY_LIN
  -------         PROC          _INT_TO_STR
  D:0007H         SYMBOL        num
  -------         DO            
  D:0007H         SYMBOL        t
  D:0002H         SYMBOL        d
  D:0001H         SYMBOL        p
  X:0077H         SYMBOL        str1
  -------         ENDDO         
  C:9678H         LINE#         1001
  C:9678H         LINE#         1002
  C:9678H         LINE#         1007
  C:967AH         LINE#         1008
  C:9683H         LINE#         1009
  C:968AH         LINE#         1010
  C:9697H         LINE#         1011
  C:969CH         LINE#         1012
  C:969FH         LINE#         1013
  C:96A5H         LINE#         1014
  C:96A5H         LINE#         1015
  -------         ENDPROC       _INT_TO_STR
  -------         PROC          CLEAN_ALL
  C:8FA5H         LINE#         1016
  C:8FA5H         LINE#         1017
  C:8FA5H         LINE#         1018
  C:8FAAH         LINE#         1019
  C:8FAFH         LINE#         1020
  C:8FB3H         LINE#         1021
  C:8FB6H         LINE#         1022
  C:8FBAH         LINE#         1023
  C:8FBFH         LINE#         1024
  C:8FC4H         LINE#         1026
  C:8FC9H         LINE#         1027
  C:8FCDH         LINE#         1028
  C:8FD0H         LINE#         1029
  C:8FD5H         LINE#         1030
  C:8FDAH         LINE#         1031
  C:8FDEH         LINE#         1032
  C:8FE3H         LINE#         1034
  C:8FE8H         LINE#         1035
  C:8FECH         LINE#         1036
  C:8FF0H         LINE#         1037
  C:8FF5H         LINE#         1038
  C:8FF9H         LINE#         1039
  C:8FFEH         LINE#         1040
  -------         ENDPROC       CLEAN_ALL
  -------         PROC          WELCOME_INIT
  C:7E37H         LINE#         1044
  C:7E37H         LINE#         1045
  C:7E37H         LINE#         1046
  C:7E54H         LINE#         1047
  C:7E5BH         LINE#         1048
  C:7E78H         LINE#         1049
  C:7E7FH         LINE#         1050
  C:7E9CH         LINE#         1051
BL51 BANKED LINKER/LOCATER V6.22                                                      05/27/2019  15:40:45  PAGE 48


  C:7EA3H         LINE#         1052
  C:7EC0H         LINE#         1053
  C:7EC7H         LINE#         1054
  C:7EE4H         LINE#         1055
  C:7EEBH         LINE#         1056
  C:7F08H         LINE#         1057
  C:7F0FH         LINE#         1058
  -------         ENDPROC       WELCOME_INIT
  -------         PROC          DRAW_FRAME
  C:8A65H         LINE#         1060
  C:8A65H         LINE#         1061
  C:8A65H         LINE#         1062
  C:8A79H         LINE#         1063
  C:8A8BH         LINE#         1064
  C:8A9EH         LINE#         1065
  C:8AA1H         LINE#         1066
  C:8AB6H         LINE#         1067
  C:8ACAH         LINE#         1068
  C:8ACDH         LINE#         1069
  -------         ENDPROC       DRAW_FRAME
  -------         PROC          HB_INIT
  -------         DO            
  X:0056H         SYMBOL        volume_start
  -------         ENDDO         
  C:9778H         LINE#         1071
  C:9778H         LINE#         1072
  C:9778H         LINE#         1074
  C:977DH         LINE#         1075
  C:9782H         LINE#         1076
  C:9784H         LINE#         1077
  C:9787H         LINE#         1078
  C:9787H         LINE#         1079
  C:978CH         LINE#         1080
  C:978CH         LINE#         1081
  C:978EH         LINE#         1083
  C:978EH         LINE#         1084
  C:9793H         LINE#         1085
  C:9797H         LINE#         1086
  C:9797H         LINE#         1087
  C:979AH         LINE#         1088
  -------         ENDPROC       HB_INIT
  -------         PROC          HB_SHOW_BIG_YEAR
  X:006EH         SYMBOL        str_time
  -------         DO            
  X:0074H         SYMBOL        tmp
  -------         ENDDO         
  C:8B5FH         LINE#         1094
  C:8B5FH         LINE#         1095
  C:8B5FH         LINE#         1097
  C:8B6EH         LINE#         1098
  C:8B9FH         LINE#         1099
  -------         ENDPROC       HB_SHOW_BIG_YEAR
  -------         PROC          HB_SHOW_BIG_MONTH
  X:006EH         SYMBOL        str_time
  -------         DO            
  X:0074H         SYMBOL        tmp
  -------         ENDDO         
BL51 BANKED LINKER/LOCATER V6.22                                                      05/27/2019  15:40:45  PAGE 49


  C:8BD8H         LINE#         1101
  C:8BD8H         LINE#         1102
  C:8BD8H         LINE#         1104
  C:8BE7H         LINE#         1105
  C:8C18H         LINE#         1106
  -------         ENDPROC       HB_SHOW_BIG_MONTH
  -------         PROC          HB_SHOW_BIG_DATE
  X:006EH         SYMBOL        str_time
  -------         DO            
  X:0074H         SYMBOL        tmp
  -------         ENDDO         
  C:8C51H         LINE#         1108
  C:8C51H         LINE#         1109
  C:8C51H         LINE#         1111
  C:8C60H         LINE#         1112
  C:8C91H         LINE#         1113
  -------         ENDPROC       HB_SHOW_BIG_DATE
  -------         PROC          HB_SHOW_BIG_HOUR
  X:006EH         SYMBOL        str_time
  -------         DO            
  X:0074H         SYMBOL        tmp
  -------         ENDDO         
  C:8CCAH         LINE#         1116
  C:8CCAH         LINE#         1117
  C:8CCAH         LINE#         1119
  C:8CD9H         LINE#         1120
  C:8D0AH         LINE#         1121
  -------         ENDPROC       HB_SHOW_BIG_HOUR
  -------         PROC          HB_SHOW_BIG_MIN
  X:006EH         SYMBOL        str_time
  -------         DO            
  X:0074H         SYMBOL        tmp
  -------         ENDDO         
  C:8D43H         LINE#         1123
  C:8D43H         LINE#         1124
  C:8D43H         LINE#         1126
  C:8D52H         LINE#         1127
  C:8D83H         LINE#         1128
  -------         ENDPROC       HB_SHOW_BIG_MIN
  -------         PROC          HB_SHOW_BIG_SEC
  X:006EH         SYMBOL        str_time
  -------         DO            
  D:0002H         SYMBOL        tmp_sec
  X:0074H         SYMBOL        shi
  D:0006H         SYMBOL        ge
  -------         ENDDO         
  C:734DH         LINE#         1130
  C:734DH         LINE#         1131
  C:734DH         LINE#         1135
  C:7354H         LINE#         1136
  C:7361H         LINE#         1137
  C:736EH         LINE#         1138
  C:7382H         LINE#         1139
  C:7382H         LINE#         1140
  C:7382H         LINE#         1141
  C:7387H         LINE#         1142
  C:738CH         LINE#         1143
BL51 BANKED LINKER/LOCATER V6.22                                                      05/27/2019  15:40:45  PAGE 50


  C:7391H         LINE#         1144
  C:7393H         LINE#         1145
  C:7395H         LINE#         1146
  C:7395H         LINE#         1147
  C:739AH         LINE#         1148
  C:739FH         LINE#         1149
  C:73A4H         LINE#         1150
  C:73A6H         LINE#         1151
  C:73A8H         LINE#         1152
  C:73A8H         LINE#         1153
  C:73ADH         LINE#         1154
  C:73B2H         LINE#         1155
  C:73B7H         LINE#         1156
  C:73B9H         LINE#         1157
  C:73BBH         LINE#         1158
  C:73BBH         LINE#         1159
  C:73C0H         LINE#         1160
  C:73C5H         LINE#         1161
  C:73CAH         LINE#         1162
  C:73CCH         LINE#         1163
  C:73CEH         LINE#         1164
  C:73CEH         LINE#         1165
  C:73D3H         LINE#         1166
  C:73D8H         LINE#         1167
  C:73DDH         LINE#         1168
  C:73DFH         LINE#         1169
  C:73E1H         LINE#         1170
  C:73E1H         LINE#         1171
  C:73E6H         LINE#         1172
  C:73EBH         LINE#         1173
  C:73F0H         LINE#         1174
  C:73F5H         LINE#         1175
  C:73F5H         LINE#         1176
  C:73F5H         LINE#         1177
  C:741BH         LINE#         1178
  C:741BH         LINE#         1179
  C:741BH         LINE#         1180
  C:7420H         LINE#         1181
  C:7425H         LINE#         1182
  C:742AH         LINE#         1183
  C:742CH         LINE#         1184
  C:742FH         LINE#         1185
  C:742FH         LINE#         1186
  C:7434H         LINE#         1187
  C:7439H         LINE#         1188
  C:743EH         LINE#         1189
  C:7440H         LINE#         1190
  C:7443H         LINE#         1191
  C:7443H         LINE#         1192
  C:7448H         LINE#         1193
  C:744DH         LINE#         1194
  C:7452H         LINE#         1195
  C:7454H         LINE#         1196
  C:7457H         LINE#         1197
  C:7457H         LINE#         1198
  C:745CH         LINE#         1199
  C:7461H         LINE#         1200
BL51 BANKED LINKER/LOCATER V6.22                                                      05/27/2019  15:40:45  PAGE 51


  C:7466H         LINE#         1201
  C:7468H         LINE#         1202
  C:746AH         LINE#         1203
  C:746AH         LINE#         1204
  C:746FH         LINE#         1205
  C:7474H         LINE#         1206
  C:7479H         LINE#         1207
  C:747BH         LINE#         1208
  C:747DH         LINE#         1209
  C:747DH         LINE#         1210
  C:7482H         LINE#         1211
  C:7487H         LINE#         1212
  C:748CH         LINE#         1213
  C:748EH         LINE#         1214
  C:7490H         LINE#         1215
  C:7490H         LINE#         1216
  C:7495H         LINE#         1217
  C:749AH         LINE#         1218
  C:749FH         LINE#         1219
  C:74A1H         LINE#         1220
  C:74A3H         LINE#         1221
  C:74A3H         LINE#         1222
  C:74A8H         LINE#         1223
  C:74ADH         LINE#         1224
  C:74B2H         LINE#         1225
  C:74B4H         LINE#         1226
  C:74B6H         LINE#         1227
  C:74B6H         LINE#         1228
  C:74BBH         LINE#         1229
  C:74C0H         LINE#         1230
  C:74C5H         LINE#         1231
  C:74C7H         LINE#         1232
  C:74C9H         LINE#         1233
  C:74C9H         LINE#         1234
  C:74CEH         LINE#         1235
  C:74D3H         LINE#         1236
  C:74D8H         LINE#         1237
  C:74DDH         LINE#         1238
  C:74DDH         LINE#         1239
  C:74DDH         LINE#         1240
  -------         ENDPROC       HB_SHOW_BIG_SEC
  -------         PROC          _HB_SHOW_BIG_TEMP
  D:0004H         SYMBOL        int_tmp
  X:008CH         SYMBOL        dec_tmp
  -------         DO            
  X:008DH         SYMBOL        tmp
  D:0007H         SYMBOL        symbol
  X:0090H         SYMBOL        dec_temper
  -------         ENDDO         
  C:800FH         LINE#         1245
  C:8016H         LINE#         1246
  C:8016H         LINE#         1248
  C:8018H         LINE#         1249
  C:801EH         LINE#         1250
  C:8022H         LINE#         1251
  C:8022H         LINE#         1252
  C:8023H         LINE#         1253
BL51 BANKED LINKER/LOCATER V6.22                                                      05/27/2019  15:40:45  PAGE 52


  C:8025H         LINE#         1255
  C:802DH         LINE#         1256
  C:8033H         LINE#         1258
  C:8036H         LINE#         1259
  C:8036H         LINE#         1260
  C:8037H         LINE#         1261
  C:8039H         LINE#         1262
  C:8039H         LINE#         1263
  C:8039H         LINE#         1264
  C:803FH         LINE#         1265
  C:803FH         LINE#         1266
  C:8043H         LINE#         1267
  C:8043H         LINE#         1268
  C:8045H         LINE#         1270
  C:8045H         LINE#         1271
  C:8054H         LINE#         1272
  C:8057H         LINE#         1273
  C:8057H         LINE#         1274
  C:8062H         LINE#         1275
  C:806BH         LINE#         1276
  C:806EH         LINE#         1278
  C:807FH         LINE#         1279
  C:8082H         LINE#         1281
  C:8091H         LINE#         1282
  C:80A7H         LINE#         1283
  C:80B6H         LINE#         1284
  C:80BFH         LINE#         1285
  C:80C6H         LINE#         1286
  C:80D7H         LINE#         1287
  -------         ENDPROC       _HB_SHOW_BIG_TEMP
  -------         PROC          HB_SHOW_BIG_TIME_ONLY
  X:0068H         SYMBOL        str_time
  C:90BBH         LINE#         1290
  C:90BBH         LINE#         1291
  C:90BBH         LINE#         1292
  C:90D1H         LINE#         1293
  C:90EAH         LINE#         1294
  C:9100H         LINE#         1295
  -------         ENDPROC       HB_SHOW_BIG_TIME_ONLY
  -------         PROC          HB_SHOW_BIG_DATE_ONLY
  X:0068H         SYMBOL        str_time
  C:867BH         LINE#         1299
  C:867BH         LINE#         1300
  C:867BH         LINE#         1301
  C:8691H         LINE#         1302
  C:8698H         LINE#         1303
  C:86B5H         LINE#         1304
  C:86BCH         LINE#         1305
  C:86D9H         LINE#         1306
  C:86F6H         LINE#         1307
  C:86FDH         LINE#         1308
  C:8713H         LINE#         1309
  -------         ENDPROC       HB_SHOW_BIG_DATE_ONLY
  -------         PROC          L?0704
  -------         ENDPROC       L?0704
  -------         PROC          HB_SHOW_YEAR
  X:006EH         SYMBOL        str_time
BL51 BANKED LINKER/LOCATER V6.22                                                      05/27/2019  15:40:45  PAGE 53


  -------         DO            
  X:0074H         SYMBOL        tmp
  -------         ENDDO         
  C:9360H         LINE#         1313
  C:9360H         LINE#         1314
  C:9360H         LINE#         1316
  C:936EH         LINE#         1317
  C:9383H         LINE#         1318
  -------         ENDPROC       HB_SHOW_YEAR
  -------         PROC          L?0707
  -------         ENDPROC       L?0707
  -------         PROC          HB_SHOW_MONTH
  X:006EH         SYMBOL        str_time
  -------         DO            
  X:0074H         SYMBOL        tmp
  -------         ENDDO         
  C:9593H         LINE#         1320
  C:9593H         LINE#         1321
  C:9593H         LINE#         1323
  C:95A1H         LINE#         1324
  -------         ENDPROC       HB_SHOW_MONTH
  -------         PROC          L?0708
  -------         ENDPROC       L?0708
  -------         PROC          HB_SHOW_DATE
  X:006EH         SYMBOL        str_time
  -------         DO            
  X:0074H         SYMBOL        tmp
  -------         ENDDO         
  C:95C4H         LINE#         1326
  C:95C4H         LINE#         1327
  C:95C4H         LINE#         1329
  C:95D2H         LINE#         1330
  -------         ENDPROC       HB_SHOW_DATE
  -------         PROC          SHOW_DATE
  X:0092H         SYMBOL        str_time
  C:91C4H         LINE#         1332
  C:91C4H         LINE#         1333
  C:91C4H         LINE#         1334
  C:91CBH         LINE#         1335
  C:91E0H         LINE#         1336
  C:91E7H         LINE#         1337
  C:91FCH         LINE#         1338
  C:9203H         LINE#         1339
  -------         ENDPROC       SHOW_DATE
  -------         PROC          L?0705
  -------         ENDPROC       L?0705
  -------         PROC          CALCULATE_DAY
  X:0074H         SYMBOL        str_time
  -------         DO            
  X:007AH         SYMBOL        tmp_year
  D:0002H         SYMBOL        tmp_month
  X:007CH         SYMBOL        tmp_date
  D:0006H         SYMBOL        iWeekDay
  -------         ENDDO         
  C:7B0EH         LINE#         1344
  C:7B0EH         LINE#         1345
  C:7B0EH         LINE#         1347
BL51 BANKED LINKER/LOCATER V6.22                                                      05/27/2019  15:40:45  PAGE 54


  C:7B0EH         LINE#         1348
  C:7B1BH         LINE#         1349
  C:7B22H         LINE#         1350
  C:7B2DH         LINE#         1352
  C:7B37H         LINE#         1353
  C:7B37H         LINE#         1354
  C:7B3EH         LINE#         1355
  C:7B48H         LINE#         1356
  C:7B48H         LINE#         1357
  C:7BD1H         LINE#         1359
  C:7BF1H         LINE#         1360
  C:7BF1H         LINE#         1361
  C:7BF8H         LINE#         1362
  C:7BFFH         LINE#         1363
  C:7C06H         LINE#         1364
  C:7C0DH         LINE#         1365
  C:7C14H         LINE#         1366
  C:7C1BH         LINE#         1367
  C:7C22H         LINE#         1368
  C:7C28H         LINE#         1369
  C:7C28H         LINE#         1370
  -------         ENDPROC       CALCULATE_DAY
  -------         PROC          CALCULATE_DAY_NUM
  X:005CH         SYMBOL        str_time
  -------         DO            
  X:0062H         SYMBOL        tmp_year
  D:0002H         SYMBOL        tmp_month
  X:0064H         SYMBOL        tmp_date
  D:0006H         SYMBOL        iWeekDay
  -------         ENDDO         
  C:84FAH         LINE#         1375
  C:84FAH         LINE#         1376
  C:84FAH         LINE#         1378
  C:84FAH         LINE#         1379
  C:8507H         LINE#         1380
  C:850EH         LINE#         1381
  C:8519H         LINE#         1383
  C:8523H         LINE#         1384
  C:8523H         LINE#         1385
  C:852AH         LINE#         1386
  C:8534H         LINE#         1387
  C:8534H         LINE#         1388
  C:85BBH         LINE#         1390
  C:85BBH         LINE#         1391
  -------         ENDPROC       CALCULATE_DAY_NUM
  -------         PROC          HB_SHOW_BIG_WEEK
  X:0098H         SYMBOL        str_time
  C:9C4EH         LINE#         1400
  C:9C4EH         LINE#         1401
  C:9C4EH         LINE#         1402
  -------         ENDPROC       HB_SHOW_BIG_WEEK
  -------         PROC          L?0709
  -------         ENDPROC       L?0709
  -------         PROC          _GET_MOON_DAY
  D:0007H         SYMBOL        month_p
  D:0004H         SYMBOL        table_addr
  -------         DO            
BL51 BANKED LINKER/LOCATER V6.22                                                      05/27/2019  15:40:45  PAGE 55


  D:0006H         SYMBOL        temp
  -------         ENDDO         
  C:763AH         LINE#         1404
  C:763AH         LINE#         1405
  C:763AH         LINE#         1407
  C:7669H         LINE#         1408
  C:7677H         LINE#         1409
  C:767DH         LINE#         1410
  C:768BH         LINE#         1411
  C:7691H         LINE#         1412
  C:769FH         LINE#         1413
  C:76A5H         LINE#         1414
  C:76B3H         LINE#         1415
  C:76B9H         LINE#         1416
  C:76C7H         LINE#         1417
  C:76CDH         LINE#         1418
  C:76DBH         LINE#         1419
  C:76E1H         LINE#         1420
  C:76EFH         LINE#         1421
  C:76F5H         LINE#         1422
  C:7703H         LINE#         1423
  C:7709H         LINE#         1424
  C:7717H         LINE#         1425
  C:771DH         LINE#         1426
  C:772BH         LINE#         1427
  C:7731H         LINE#         1428
  C:773FH         LINE#         1429
  C:7745H         LINE#         1430
  C:7753H         LINE#         1431
  C:7759H         LINE#         1432
  C:7767H         LINE#         1433
  C:776DH         LINE#         1434
  C:776DH         LINE#         1435
  C:776EH         LINE#         1436
  C:776EH         LINE#         1437
  -------         ENDPROC       _GET_MOON_DAY
  -------         PROC          _HEX_TO_BCD
  D:0003H         SYMBOL        hex
  -------         DO            
  D:0007H         SYMBOL        temp1
  -------         ENDDO         
  C:99C1H         LINE#         1445
  C:99C3H         LINE#         1446
  C:99C3H         LINE#         1448
  C:99DFH         LINE#         1449
  C:99DFH         LINE#         1450
  -------         ENDPROC       _HEX_TO_BCD
  C:5CE9H         SYMBOL        L?0696
  C:5CF9H         SYMBOL        L?0697
  C:5D01H         SYMBOL        L?0698
  -------         PROC          L?0695
  -------         ENDPROC       L?0695
  C:5CE9H         SYMBOL        L?0696
  C:5CF9H         SYMBOL        L?0697
  C:5D01H         SYMBOL        L?0698
  -------         PROC          SUN_TO_LUNAR
  B:0020H.4       SYMBOL        c
BL51 BANKED LINKER/LOCATER V6.22                                                      05/27/2019  15:40:45  PAGE 56


  X:006CH         SYMBOL        year
  X:006DH         SYMBOL        month
  X:006EH         SYMBOL        day
  X:006FH         SYMBOL        return_flag
  -------         DO            
  X:0070H         SYMBOL        i_year
  D:0003H         SYMBOL        temp1
  D:0002H         SYMBOL        temp2
  X:0071H         SYMBOL        temp3
  X:0072H         SYMBOL        month_p
  X:0073H         SYMBOL        temp4
  X:0075H         SYMBOL        table_addr
  B:0020H.5       SYMBOL        flag2
  B:0020H.6       SYMBOL        flag_y
  -------         ENDDO         
  C:5D09H         LINE#         1452
  C:5D09H         LINE#         1453
  C:5D09H         LINE#         1454
  C:5D0EH         LINE#         1458
  C:5D18H         LINE#         1459
  C:5D20H         LINE#         1460
  C:5D28H         LINE#         1462
  C:5D31H         LINE#         1463
  C:5D35H         LINE#         1464
  C:5D3CH         LINE#         1465
  C:5D43H         LINE#         1466
  C:5D47H         LINE#         1467
  C:5D4EH         LINE#         1468
  C:5D55H         LINE#         1469
  C:5D59H         LINE#         1470
  C:5D60H         LINE#         1472
  C:5D67H         LINE#         1473
  C:5D6CH         LINE#         1474
  C:5D6EH         LINE#         1476
  C:5D6EH         LINE#         1477
  C:5D84H         LINE#         1478
  C:5D84H         LINE#         1479
  C:5D9AH         LINE#         1480
  C:5DA4H         LINE#         1481
  C:5DA8H         LINE#         1482
  C:5DACH         LINE#         1483
  C:5DACH         LINE#         1484
  C:5DAEH         LINE#         1485
  C:5DB0H         LINE#         1487
  C:5DB0H         LINE#         1488
  C:5DB7H         LINE#         1489
  C:5DB7H         LINE#         1491
  C:5DC1H         LINE#         1492
  C:5DD1H         LINE#         1493
  C:5DD3H         LINE#         1494
  C:5DD3H         LINE#         1495
  C:5E02H         LINE#         1496
  C:5E02H         LINE#         1497
  C:5E13H         LINE#         1498
  C:5E1CH         LINE#         1499
  C:5E1CH         LINE#         1505
  C:5E32H         LINE#         1506
BL51 BANKED LINKER/LOCATER V6.22                                                      05/27/2019  15:40:45  PAGE 57


  C:5E3FH         LINE#         1507
  C:5E45H         LINE#         1508
  C:5E49H         LINE#         1509
  C:5E58H         LINE#         1510
  C:5E5AH         LINE#         1511
  C:5E61H         LINE#         1512
  C:5E63H         LINE#         1513
  C:5E78H         LINE#         1514
  C:5E82H         LINE#         1517
  C:5E92H         LINE#         1519
  C:5E9DH         LINE#         1520
  C:5EA3H         LINE#         1522
  C:5EAAH         LINE#         1523
  C:5EACH         LINE#         1526
  C:5EB1H         LINE#         1527
  C:5EB3H         LINE#         1528
  C:5EB9H         LINE#         1530
  C:5EBEH         LINE#         1532
  C:5EC1H         LINE#         1533
  C:5EC5H         LINE#         1535
  C:5EC7H         LINE#         1536
  C:5EC9H         LINE#         1537
  C:5ECEH         LINE#         1538
  C:5ED1H         LINE#         1541
  C:5ED1H         LINE#         1542
  C:5EE3H         LINE#         1543
  C:5EF0H         LINE#         1544
  C:5EF6H         LINE#         1545
  C:5F01H         LINE#         1546
  C:5F07H         LINE#         1547
  C:5F1DH         LINE#         1548
  C:5F27H         LINE#         1549
  C:5F31H         LINE#         1550
  C:5F34H         LINE#         1552
  C:5F36H         LINE#         1553
  C:5F40H         LINE#         1554
  C:5F47H         LINE#         1555
  C:5F49H         LINE#         1556
  C:5F52H         LINE#         1557
  C:5F55H         LINE#         1558
  C:5F59H         LINE#         1559
  C:5F62H         LINE#         1560
  C:5F6BH         LINE#         1561
  C:5F70H         LINE#         1562
  C:5F77H         LINE#         1563
  C:5F79H         LINE#         1564
  C:5F7BH         LINE#         1565
  C:5F88H         LINE#         1566
  C:5F88H         LINE#         1567
  C:5F8CH         LINE#         1569
  C:5F95H         LINE#         1570
  C:5F9EH         LINE#         1571
  C:5FA7H         LINE#         1572
  C:5FAEH         LINE#         1573
  C:5FAEH         LINE#         1574
  C:5FB1H         LINE#         1575
  C:5FB1H         LINE#         1576
BL51 BANKED LINKER/LOCATER V6.22                                                      05/27/2019  15:40:45  PAGE 58


  C:5FB5H         LINE#         1577
  C:5FB5H         LINE#         1578
  C:5FB8H         LINE#         1579
  C:5FB8H         LINE#         1581
  C:5FB8H         LINE#         1582
  C:5FB8H         LINE#         1583
  C:5FB8H         LINE#         1584
  -------         ENDPROC       SUN_TO_LUNAR
  -------         PROC          L?0706
  -------         ENDPROC       L?0706
  -------         PROC          CONVER_JIEQI
  X:006EH         SYMBOL        str_time
  -------         DO            
  D:0007H         SYMBOL        month_add
  D:0006H         SYMBOL        i
  -------         ENDDO         
  C:9278H         LINE#         1586
  C:9278H         LINE#         1587
  C:9278H         LINE#         1590
  C:9281H         LINE#         1591
  C:9283H         LINE#         1592
  C:9283H         LINE#         1593
  C:92ACH         LINE#         1594
  C:92B0H         LINE#         1595
  C:92B5H         LINE#         1596
  C:92B7H         LINE#         1597
  -------         ENDPROC       CONVER_JIEQI
  -------         PROC          CLEAN_FESTIVEL
  C:991DH         LINE#         1598
  C:991DH         LINE#         1599
  C:991DH         LINE#         1600
  C:9922H         LINE#         1601
  C:9927H         LINE#         1602
  C:992CH         LINE#         1603
  C:9931H         LINE#         1604
  C:9936H         LINE#         1605
  C:993AH         LINE#         1606
  -------         ENDPROC       CLEAN_FESTIVEL
  -------         PROC          SHOW_JIEQI
  X:0068H         SYMBOL        str_time
  -------         DO            
  D:0007H         SYMBOL        num_jieqi
  -------         ENDDO         
  C:6279H         LINE#         1610
  C:6279H         LINE#         1611
  C:6279H         LINE#         1612
  C:6280H         LINE#         1613
  C:62D3H         LINE#         1614
  C:62D3H         LINE#         1615
  C:62D3H         LINE#         1616
  C:62E8H         LINE#         1618
  C:62E8H         LINE#         1619
  C:62E8H         LINE#         1620
  C:62F9H         LINE#         1621
  C:62FFH         LINE#         1622
  C:6300H         LINE#         1623
  C:6300H         LINE#         1624
BL51 BANKED LINKER/LOCATER V6.22                                                      05/27/2019  15:40:45  PAGE 59


  C:6311H         LINE#         1625
  C:6317H         LINE#         1626
  C:6318H         LINE#         1627
  C:6318H         LINE#         1628
  C:632FH         LINE#         1629
  C:6330H         LINE#         1630
  C:6330H         LINE#         1631
  C:6347H         LINE#         1632
  C:6348H         LINE#         1633
  C:6348H         LINE#         1634
  C:635FH         LINE#         1635
  C:6360H         LINE#         1636
  C:6360H         LINE#         1637
  C:6377H         LINE#         1638
  C:6378H         LINE#         1639
  C:6378H         LINE#         1640
  C:638FH         LINE#         1641
  C:6390H         LINE#         1642
  C:6390H         LINE#         1643
  C:63A7H         LINE#         1644
  C:63A8H         LINE#         1645
  C:63A8H         LINE#         1646
  C:63BFH         LINE#         1647
  C:63C0H         LINE#         1648
  C:63C0H         LINE#         1649
  C:63D7H         LINE#         1650
  C:63D8H         LINE#         1651
  C:63D8H         LINE#         1652
  C:63EFH         LINE#         1653
  C:63F0H         LINE#         1654
  C:63F0H         LINE#         1655
  C:6407H         LINE#         1656
  C:6408H         LINE#         1657
  C:6408H         LINE#         1658
  C:641FH         LINE#         1659
  C:6420H         LINE#         1660
  C:6420H         LINE#         1661
  C:6437H         LINE#         1662
  C:6438H         LINE#         1663
  C:6438H         LINE#         1664
  C:644FH         LINE#         1665
  C:6450H         LINE#         1666
  C:6450H         LINE#         1667
  C:6467H         LINE#         1668
  C:6468H         LINE#         1669
  C:6468H         LINE#         1670
  C:647FH         LINE#         1671
  C:6480H         LINE#         1672
  C:6480H         LINE#         1673
  C:6497H         LINE#         1674
  C:6498H         LINE#         1675
  C:6498H         LINE#         1676
  C:64AFH         LINE#         1677
  C:64B0H         LINE#         1678
  C:64B0H         LINE#         1679
  C:64C7H         LINE#         1680
  C:64C8H         LINE#         1681
BL51 BANKED LINKER/LOCATER V6.22                                                      05/27/2019  15:40:45  PAGE 60


  C:64C8H         LINE#         1682
  C:64DFH         LINE#         1683
  C:64E0H         LINE#         1684
  C:64E0H         LINE#         1685
  C:64F7H         LINE#         1686
  C:64F8H         LINE#         1687
  C:64F8H         LINE#         1688
  C:650FH         LINE#         1689
  C:6510H         LINE#         1690
  C:6510H         LINE#         1691
  C:6527H         LINE#         1692
  C:6527H         LINE#         1693
  C:6527H         LINE#         1694
  -------         ENDPROC       SHOW_JIEQI
  -------         PROC          CAL_JIEQI
  X:0068H         SYMBOL        str_time
  -------         DO            
  D:0007H         SYMBOL        num_jieqi
  -------         ENDDO         
  C:7D38H         LINE#         1701
  C:7D38H         LINE#         1702
  C:7D38H         LINE#         1703
  C:7D3FH         LINE#         1704
  C:7D8FH         LINE#         1705
  C:7D8FH         LINE#         1706
  C:7D8FH         LINE#         1708
  C:7D8FH         LINE#         1709
  C:7D8FH         LINE#         1710
  C:7D95H         LINE#         1711
  C:7D96H         LINE#         1712
  C:7D96H         LINE#         1714
  C:7D9CH         LINE#         1715
  C:7D9DH         LINE#         1716
  C:7D9DH         LINE#         1717
  C:7DA3H         LINE#         1718
  C:7DA4H         LINE#         1719
  C:7DA4H         LINE#         1720
  C:7DAAH         LINE#         1721
  C:7DABH         LINE#         1722
  C:7DABH         LINE#         1723
  C:7DB1H         LINE#         1724
  C:7DB2H         LINE#         1725
  C:7DB2H         LINE#         1726
  C:7DB8H         LINE#         1727
  C:7DB9H         LINE#         1728
  C:7DB9H         LINE#         1729
  C:7DBFH         LINE#         1730
  C:7DC0H         LINE#         1731
  C:7DC0H         LINE#         1732
  C:7DC6H         LINE#         1733
  C:7DC7H         LINE#         1734
  C:7DC7H         LINE#         1735
  C:7DCDH         LINE#         1736
  C:7DCEH         LINE#         1737
  C:7DCEH         LINE#         1738
  C:7DD4H         LINE#         1739
  C:7DD5H         LINE#         1740
BL51 BANKED LINKER/LOCATER V6.22                                                      05/27/2019  15:40:45  PAGE 61


  C:7DD5H         LINE#         1741
  C:7DDBH         LINE#         1742
  C:7DDCH         LINE#         1743
  C:7DDCH         LINE#         1744
  C:7DE2H         LINE#         1745
  C:7DE3H         LINE#         1746
  C:7DE3H         LINE#         1747
  C:7DE9H         LINE#         1748
  C:7DEAH         LINE#         1749
  C:7DEAH         LINE#         1750
  C:7DF0H         LINE#         1751
  C:7DF1H         LINE#         1752
  C:7DF1H         LINE#         1753
  C:7DF7H         LINE#         1754
  C:7DF8H         LINE#         1755
  C:7DF8H         LINE#         1756
  C:7DFEH         LINE#         1757
  C:7DFFH         LINE#         1758
  C:7DFFH         LINE#         1759
  C:7E05H         LINE#         1760
  C:7E06H         LINE#         1761
  C:7E06H         LINE#         1762
  C:7E0CH         LINE#         1763
  C:7E0DH         LINE#         1764
  C:7E0DH         LINE#         1765
  C:7E13H         LINE#         1766
  C:7E14H         LINE#         1767
  C:7E14H         LINE#         1768
  C:7E1AH         LINE#         1769
  C:7E1BH         LINE#         1770
  C:7E1BH         LINE#         1771
  C:7E21H         LINE#         1772
  C:7E22H         LINE#         1773
  C:7E22H         LINE#         1774
  C:7E28H         LINE#         1775
  C:7E29H         LINE#         1776
  C:7E29H         LINE#         1777
  C:7E2FH         LINE#         1778
  C:7E30H         LINE#         1779
  C:7E30H         LINE#         1780
  C:7E36H         LINE#         1781
  C:7E36H         LINE#         1782
  C:7E36H         LINE#         1783
  -------         ENDPROC       CAL_JIEQI
  -------         PROC          SHOW_LUNAR_FESTIVAL
  C:8367H         LINE#         1791
  C:8367H         LINE#         1792
  C:8367H         LINE#         1793
  C:8374H         LINE#         1794
  C:8374H         LINE#         1795
  C:837AH         LINE#         1796
  C:837DH         LINE#         1797
  C:8388H         LINE#         1798
  C:8388H         LINE#         1799
  C:838EH         LINE#         1800
  C:8391H         LINE#         1801
  C:839DH         LINE#         1802
BL51 BANKED LINKER/LOCATER V6.22                                                      05/27/2019  15:40:45  PAGE 62


  C:839DH         LINE#         1803
  C:83A3H         LINE#         1804
  C:83A5H         LINE#         1805
  C:83B2H         LINE#         1806
  C:83B2H         LINE#         1807
  C:83B8H         LINE#         1808
  C:83BAH         LINE#         1809
  C:83C5H         LINE#         1810
  C:83C5H         LINE#         1811
  C:83CBH         LINE#         1812
  C:83CDH         LINE#         1813
  C:83D9H         LINE#         1814
  C:83D9H         LINE#         1815
  C:83DFH         LINE#         1816
  C:83E1H         LINE#         1817
  C:83EEH         LINE#         1818
  C:83EEH         LINE#         1819
  C:83F4H         LINE#         1820
  C:83F6H         LINE#         1821
  C:8401H         LINE#         1822
  C:8401H         LINE#         1823
  C:8407H         LINE#         1824
  C:8409H         LINE#         1825
  C:8415H         LINE#         1826
  C:8415H         LINE#         1827
  C:8420H         LINE#         1828
  C:8421H         LINE#         1830
  C:8421H         LINE#         1831
  C:8423H         LINE#         1832
  C:8429H         LINE#         1833
  C:8429H         LINE#         1834
  C:8430H         LINE#         1835
  C:8430H         LINE#         1836
  C:8430H         LINE#         1837
  -------         ENDPROC       SHOW_LUNAR_FESTIVAL
  -------         PROC          SHOW_FESTIVAL
  C:4DA1H         LINE#         1839
  C:4DA1H         LINE#         1840
  C:4DA1H         LINE#         1841
  C:4DCAH         LINE#         1842
  C:4DCAH         LINE#         1843
  C:4DCAH         LINE#         1844
  C:4DD6H         LINE#         1845
  C:4DD6H         LINE#         1846
  C:4DD6H         LINE#         1847
  C:4DE3H         LINE#         1848
  C:4DE6H         LINE#         1849
  C:4DE6H         LINE#         1850
  C:4DEBH         LINE#         1851
  C:4DF1H         LINE#         1852
  C:4DF7H         LINE#         1853
  C:4DFAH         LINE#         1854
  C:4DFAH         LINE#         1855
  C:4DFAH         LINE#         1856
  C:4DFAH         LINE#         1857
  C:4E0BH         LINE#         1858
  C:4E0BH         LINE#         1859
BL51 BANKED LINKER/LOCATER V6.22                                                      05/27/2019  15:40:45  PAGE 63


  C:4E0BH         LINE#         1860
  C:4E1AH         LINE#         1861
  C:4E1DH         LINE#         1862
  C:4E1DH         LINE#         1863
  C:4E2CH         LINE#         1864
  C:4E2FH         LINE#         1865
  C:4E2FH         LINE#         1866
  C:4E34H         LINE#         1867
  C:4E3AH         LINE#         1868
  C:4E40H         LINE#         1869
  C:4E43H         LINE#         1870
  C:4E43H         LINE#         1871
  C:4E43H         LINE#         1872
  C:4E43H         LINE#         1873
  C:4E60H         LINE#         1874
  C:4E60H         LINE#         1875
  C:4E60H         LINE#         1876
  C:4E6FH         LINE#         1877
  C:4E72H         LINE#         1878
  C:4E72H         LINE#         1879
  C:4E81H         LINE#         1880
  C:4E84H         LINE#         1881
  C:4E84H         LINE#         1882
  C:4E93H         LINE#         1883
  C:4E96H         LINE#         1884
  C:4E96H         LINE#         1885
  C:4EA5H         LINE#         1886
  C:4EA8H         LINE#         1887
  C:4EA8H         LINE#         1888
  C:4EB7H         LINE#         1889
  C:4EBAH         LINE#         1890
  C:4EBAH         LINE#         1891
  C:4EBFH         LINE#         1892
  C:4EC5H         LINE#         1893
  C:4ED6H         LINE#         1894
  C:4ED9H         LINE#         1895
  C:4ED9H         LINE#         1896
  C:4ED9H         LINE#         1897
  C:4ED9H         LINE#         1898
  C:4EEAH         LINE#         1899
  C:4EEAH         LINE#         1900
  C:4EEAH         LINE#         1901
  C:4EF9H         LINE#         1902
  C:4EFCH         LINE#         1903
  C:4EFCH         LINE#         1904
  C:4F0BH         LINE#         1905
  C:4F0EH         LINE#         1906
  C:4F0EH         LINE#         1907
  C:4F11H         LINE#         1908
  C:4F22H         LINE#         1909
  C:4F22H         LINE#         1910
  C:4F25H         LINE#         1912
  C:4F25H         LINE#         1913
  C:4F25H         LINE#         1914
  C:4F25H         LINE#         1915
  C:4F3EH         LINE#         1916
  C:4F3EH         LINE#         1917
BL51 BANKED LINKER/LOCATER V6.22                                                      05/27/2019  15:40:45  PAGE 64


  C:4F3EH         LINE#         1918
  C:4F4DH         LINE#         1919
  C:4F4FH         LINE#         1920
  C:4F4FH         LINE#         1921
  C:4F5EH         LINE#         1922
  C:4F60H         LINE#         1923
  C:4F60H         LINE#         1924
  C:4F6FH         LINE#         1925
  C:4F71H         LINE#         1926
  C:4F71H         LINE#         1927
  C:4F80H         LINE#         1928
  C:4F82H         LINE#         1929
  C:4F82H         LINE#         1930
  C:4F85H         LINE#         1931
  C:4F96H         LINE#         1932
  C:4F9BH         LINE#         1933
  C:4F9BH         LINE#         1934
  C:4F9BH         LINE#         1935
  C:4F9BH         LINE#         1936
  C:4F9BH         LINE#         1937
  C:4FA2H         LINE#         1938
  C:4FCAH         LINE#         1939
  C:4FCAH         LINE#         1940
  C:4FCAH         LINE#         1941
  C:4FDFH         LINE#         1942
  C:4FDFH         LINE#         1943
  C:4FDFH         LINE#         1944
  C:4FEEH         LINE#         1945
  C:4FEFH         LINE#         1946
  C:4FEFH         LINE#         1947
  C:4FFEH         LINE#         1948
  C:4FFFH         LINE#         1949
  C:4FFFH         LINE#         1950
  C:500EH         LINE#         1951
  C:500FH         LINE#         1952
  C:500FH         LINE#         1953
  C:5014H         LINE#         1954
  C:501AH         LINE#         1955
  C:501AH         LINE#         1956
  C:501CH         LINE#         1957
  C:501CH         LINE#         1958
  C:501CH         LINE#         1959
  C:501CH         LINE#         1960
  C:5028H         LINE#         1961
  C:5028H         LINE#         1962
  C:5028H         LINE#         1963
  C:5037H         LINE#         1964
  C:5038H         LINE#         1965
  C:5038H         LINE#         1966
  C:503DH         LINE#         1967
  C:5043H         LINE#         1968
  C:5049H         LINE#         1969
  C:504CH         LINE#         1971
  C:504CH         LINE#         1972
  C:504CH         LINE#         1973
  C:504CH         LINE#         1974
  C:5058H         LINE#         1975
BL51 BANKED LINKER/LOCATER V6.22                                                      05/27/2019  15:40:45  PAGE 65


  C:5058H         LINE#         1976
  C:5058H         LINE#         1977
  C:5067H         LINE#         1978
  C:5068H         LINE#         1979
  C:5068H         LINE#         1980
  C:506DH         LINE#         1981
  C:5073H         LINE#         1982
  C:5079H         LINE#         1983
  C:507CH         LINE#         1984
  C:507CH         LINE#         1985
  C:507CH         LINE#         1986
  C:507CH         LINE#         1987
  C:5095H         LINE#         1988
  C:5095H         LINE#         1989
  C:5095H         LINE#         1990
  C:50A4H         LINE#         1991
  C:50A5H         LINE#         1992
  C:50A5H         LINE#         1993
  C:50B4H         LINE#         1994
  C:50B5H         LINE#         1995
  C:50B5H         LINE#         1996
  C:50C4H         LINE#         1997
  C:50C5H         LINE#         1998
  C:50C5H         LINE#         1999
  C:50D4H         LINE#         2000
  C:50D5H         LINE#         2001
  C:50D5H         LINE#         2002
  C:50D8H         LINE#         2003
  C:50E9H         LINE#         2004
  C:50E9H         LINE#         2005
  C:50ECH         LINE#         2006
  C:50ECH         LINE#         2007
  C:50ECH         LINE#         2008
  C:50ECH         LINE#         2009
  C:5101H         LINE#         2010
  C:5101H         LINE#         2011
  C:5101H         LINE#         2012
  C:5110H         LINE#         2013
  C:5111H         LINE#         2014
  C:5111H         LINE#         2015
  C:5120H         LINE#         2016
  C:5121H         LINE#         2017
  C:5121H         LINE#         2018
  C:5130H         LINE#         2019
  C:5131H         LINE#         2020
  C:5131H         LINE#         2021
  C:5136H         LINE#         2022
  C:513CH         LINE#         2023
  C:5142H         LINE#         2024
  C:5145H         LINE#         2026
  C:5145H         LINE#         2027
  C:5145H         LINE#         2028
  C:5145H         LINE#         2029
  C:515AH         LINE#         2030
  C:515AH         LINE#         2031
  C:515AH         LINE#         2032
  C:5169H         LINE#         2033
BL51 BANKED LINKER/LOCATER V6.22                                                      05/27/2019  15:40:45  PAGE 66


  C:516AH         LINE#         2034
  C:516AH         LINE#         2035
  C:5179H         LINE#         2036
  C:517AH         LINE#         2037
  C:517AH         LINE#         2038
  C:5189H         LINE#         2039
  C:518AH         LINE#         2040
  C:518AH         LINE#         2041
  C:518DH         LINE#         2042
  C:519EH         LINE#         2043
  C:51A3H         LINE#         2044
  C:51A4H         LINE#         2045
  C:51A4H         LINE#         2046
  C:51A4H         LINE#         2047
  C:51A4H         LINE#         2048
  C:51B8H         LINE#         2049
  C:51B8H         LINE#         2050
  C:51B8H         LINE#         2051
  C:51C7H         LINE#         2052
  C:51C8H         LINE#         2053
  C:51C8H         LINE#         2054
  C:51D7H         LINE#         2055
  C:51D8H         LINE#         2056
  C:51D8H         LINE#         2057
  C:51E7H         LINE#         2058
  C:51E8H         LINE#         2059
  C:51E8H         LINE#         2060
  C:51EDH         LINE#         2061
  C:51F0H         LINE#         2062
  C:5201H         LINE#         2063
  C:5201H         LINE#         2064
  C:5201H         LINE#         2065
  C:5201H         LINE#         2067
  C:5201H         LINE#         2069
  -------         ENDPROC       SHOW_FESTIVAL
  -------         PROC          CAL_FESTIVAL
  C:69EBH         LINE#         2077
  C:69EBH         LINE#         2078
  C:69EBH         LINE#         2079
  C:6A22H         LINE#         2080
  C:6A22H         LINE#         2081
  C:6A22H         LINE#         2082
  C:6A2EH         LINE#         2083
  C:6A2EH         LINE#         2084
  C:6A2EH         LINE#         2085
  C:6A34H         LINE#         2086
  C:6A35H         LINE#         2087
  C:6A35H         LINE#         2088
  C:6A35H         LINE#         2089
  C:6A38H         LINE#         2090
  C:6A38H         LINE#         2091
  C:6A38H         LINE#         2092
  C:6A38H         LINE#         2093
  C:6A49H         LINE#         2094
  C:6A49H         LINE#         2095
  C:6A49H         LINE#         2096
  C:6A4FH         LINE#         2097
BL51 BANKED LINKER/LOCATER V6.22                                                      05/27/2019  15:40:45  PAGE 67


  C:6A50H         LINE#         2098
  C:6A50H         LINE#         2099
  C:6A56H         LINE#         2100
  C:6A57H         LINE#         2101
  C:6A57H         LINE#         2102
  C:6A57H         LINE#         2103
  C:6A5AH         LINE#         2104
  C:6A5AH         LINE#         2105
  C:6A5AH         LINE#         2106
  C:6A5AH         LINE#         2107
  C:6A77H         LINE#         2108
  C:6A77H         LINE#         2109
  C:6A77H         LINE#         2110
  C:6A7DH         LINE#         2111
  C:6A7EH         LINE#         2112
  C:6A7EH         LINE#         2113
  C:6A84H         LINE#         2114
  C:6A85H         LINE#         2115
  C:6A85H         LINE#         2116
  C:6A8BH         LINE#         2117
  C:6A8CH         LINE#         2118
  C:6A8CH         LINE#         2119
  C:6A92H         LINE#         2120
  C:6A93H         LINE#         2121
  C:6A93H         LINE#         2122
  C:6A99H         LINE#         2123
  C:6A9AH         LINE#         2124
  C:6A9AH         LINE#         2125
  C:6A9AH         LINE#         2126
  C:6A9DH         LINE#         2127
  C:6A9DH         LINE#         2128
  C:6A9DH         LINE#         2129
  C:6A9DH         LINE#         2130
  C:6AAEH         LINE#         2131
  C:6AAEH         LINE#         2132
  C:6AAEH         LINE#         2133
  C:6AB4H         LINE#         2134
  C:6AB5H         LINE#         2135
  C:6AB5H         LINE#         2136
  C:6ABBH         LINE#         2137
  C:6ABCH         LINE#         2138
  C:6ABCH         LINE#         2139
  C:6ABCH         LINE#         2140
  C:6ABFH         LINE#         2141
  C:6ABFH         LINE#         2142
  C:6ABFH         LINE#         2143
  C:6ABFH         LINE#         2144
  C:6AD8H         LINE#         2145
  C:6AD8H         LINE#         2146
  C:6AD8H         LINE#         2147
  C:6ADEH         LINE#         2148
  C:6ADFH         LINE#         2149
  C:6ADFH         LINE#         2150
  C:6AE5H         LINE#         2151
  C:6AE6H         LINE#         2152
  C:6AE6H         LINE#         2153
  C:6AECH         LINE#         2154
BL51 BANKED LINKER/LOCATER V6.22                                                      05/27/2019  15:40:45  PAGE 68


  C:6AEDH         LINE#         2155
  C:6AEDH         LINE#         2156
  C:6AF3H         LINE#         2157
  C:6AF4H         LINE#         2158
  C:6AF4H         LINE#         2159
  C:6AF4H         LINE#         2160
  C:6AF7H         LINE#         2161
  C:6AF7H         LINE#         2162
  C:6AF7H         LINE#         2163
  C:6AF7H         LINE#         2164
  C:6B0CH         LINE#         2165
  C:6B0CH         LINE#         2166
  C:6B0CH         LINE#         2167
  C:6B12H         LINE#         2168
  C:6B13H         LINE#         2169
  C:6B13H         LINE#         2170
  C:6B19H         LINE#         2171
  C:6B1AH         LINE#         2172
  C:6B1AH         LINE#         2173
  C:6B20H         LINE#         2174
  C:6B21H         LINE#         2175
  C:6B21H         LINE#         2176
  C:6B21H         LINE#         2177
  C:6B24H         LINE#         2178
  C:6B24H         LINE#         2179
  C:6B24H         LINE#         2180
  C:6B24H         LINE#         2181
  C:6B30H         LINE#         2182
  C:6B30H         LINE#         2183
  C:6B30H         LINE#         2184
  C:6B36H         LINE#         2185
  C:6B37H         LINE#         2186
  C:6B37H         LINE#         2187
  C:6B37H         LINE#         2188
  C:6B3AH         LINE#         2189
  C:6B3AH         LINE#         2190
  C:6B3AH         LINE#         2191
  C:6B3AH         LINE#         2192
  C:6B46H         LINE#         2193
  C:6B46H         LINE#         2194
  C:6B46H         LINE#         2195
  C:6B4CH         LINE#         2196
  C:6B4DH         LINE#         2197
  C:6B4DH         LINE#         2198
  C:6B4DH         LINE#         2199
  C:6B50H         LINE#         2200
  C:6B50H         LINE#         2201
  C:6B50H         LINE#         2202
  C:6B50H         LINE#         2203
  C:6B69H         LINE#         2204
  C:6B69H         LINE#         2205
  C:6B69H         LINE#         2206
  C:6B6FH         LINE#         2207
  C:6B70H         LINE#         2208
  C:6B70H         LINE#         2209
  C:6B76H         LINE#         2210
  C:6B77H         LINE#         2211
BL51 BANKED LINKER/LOCATER V6.22                                                      05/27/2019  15:40:45  PAGE 69


  C:6B77H         LINE#         2212
  C:6B7DH         LINE#         2213
  C:6B7EH         LINE#         2214
  C:6B7EH         LINE#         2215
  C:6B84H         LINE#         2216
  C:6B85H         LINE#         2217
  C:6B85H         LINE#         2218
  C:6B85H         LINE#         2219
  C:6B88H         LINE#         2220
  C:6B88H         LINE#         2221
  C:6B88H         LINE#         2222
  C:6B88H         LINE#         2223
  C:6B9DH         LINE#         2224
  C:6B9DH         LINE#         2225
  C:6B9DH         LINE#         2226
  C:6BA3H         LINE#         2227
  C:6BA4H         LINE#         2228
  C:6BA4H         LINE#         2229
  C:6BAAH         LINE#         2230
  C:6BABH         LINE#         2231
  C:6BABH         LINE#         2232
  C:6BB1H         LINE#         2233
  C:6BB2H         LINE#         2234
  C:6BB2H         LINE#         2235
  C:6BB2H         LINE#         2237
  C:6BB4H         LINE#         2239
  C:6BB4H         LINE#         2240
  C:6BB4H         LINE#         2241
  C:6BB4H         LINE#         2242
  C:6BC9H         LINE#         2243
  C:6BC9H         LINE#         2244
  C:6BC9H         LINE#         2245
  C:6BCFH         LINE#         2246
  C:6BD0H         LINE#         2247
  C:6BD0H         LINE#         2248
  C:6BD6H         LINE#         2249
  C:6BD7H         LINE#         2250
  C:6BD7H         LINE#         2251
  C:6BDDH         LINE#         2252
  C:6BDEH         LINE#         2253
  C:6BDEH         LINE#         2254
  C:6BDEH         LINE#         2255
  C:6BE0H         LINE#         2256
  C:6BE0H         LINE#         2257
  C:6BE0H         LINE#         2258
  C:6BE0H         LINE#         2259
  C:6BF4H         LINE#         2260
  C:6BF4H         LINE#         2261
  C:6BF4H         LINE#         2262
  C:6BFAH         LINE#         2263
  C:6BFBH         LINE#         2264
  C:6BFBH         LINE#         2265
  C:6C01H         LINE#         2266
  C:6C02H         LINE#         2267
  C:6C02H         LINE#         2268
  C:6C08H         LINE#         2269
  C:6C09H         LINE#         2270
BL51 BANKED LINKER/LOCATER V6.22                                                      05/27/2019  15:40:45  PAGE 70


  C:6C09H         LINE#         2271
  C:6C0EH         LINE#         2272
  C:6C0EH         LINE#         2273
  C:6C0EH         LINE#         2274
  C:6C0EH         LINE#         2276
  C:6C0EH         LINE#         2278
  -------         ENDPROC       CAL_FESTIVAL
  -------         PROC          _JUDGE_LEAP_MONTH
  X:0069H         SYMBOL        year
  X:006AH         SYMBOL        month
  X:006BH         SYMBOL        day
  C:67C5H         LINE#         2290
  C:67D0H         LINE#         2291
  C:67D0H         LINE#         2292
  C:6825H         LINE#         2294
  C:6825H         LINE#         2295
  C:6827H         LINE#         2296
  C:6828H         LINE#         2297
  C:6894H         LINE#         2299
  C:6894H         LINE#         2300
  C:6896H         LINE#         2301
  C:6897H         LINE#         2302
  C:6905H         LINE#         2304
  C:6905H         LINE#         2305
  C:6907H         LINE#         2306
  C:6908H         LINE#         2307
  C:6976H         LINE#         2309
  C:6976H         LINE#         2310
  C:6978H         LINE#         2311
  C:6979H         LINE#         2312
  C:69E5H         LINE#         2314
  C:69E5H         LINE#         2315
  C:69E7H         LINE#         2316
  C:69E8H         LINE#         2318
  C:69E8H         LINE#         2319
  C:69EAH         LINE#         2320
  C:69EAH         LINE#         2321
  -------         ENDPROC       _JUDGE_LEAP_MONTH
  -------         PROC          _SHOW_LUNAR
  D:0007H         SYMBOL        year
  D:0005H         SYMBOL        month
  D:0003H         SYMBOL        day
  -------         DO            
  X:0068H         SYMBOL        i
  -------         ENDDO         
  C:562CH         LINE#         2322
  C:562CH         LINE#         2323
  C:562CH         LINE#         2324
  C:5631H         LINE#         2325
  C:5634H         LINE#         2326
  C:566EH         LINE#         2327
  C:566EH         LINE#         2328
  C:566EH         LINE#         2329
  C:5674H         LINE#         2330
  C:5676H         LINE#         2331
  C:5676H         LINE#         2332
  C:567CH         LINE#         2333
BL51 BANKED LINKER/LOCATER V6.22                                                      05/27/2019  15:40:45  PAGE 71


  C:567EH         LINE#         2334
  C:567EH         LINE#         2335
  C:5684H         LINE#         2336
  C:5686H         LINE#         2337
  C:5686H         LINE#         2338
  C:568CH         LINE#         2339
  C:568EH         LINE#         2340
  C:568EH         LINE#         2341
  C:5694H         LINE#         2342
  C:5696H         LINE#         2343
  C:5696H         LINE#         2344
  C:569CH         LINE#         2345
  C:569EH         LINE#         2346
  C:569EH         LINE#         2347
  C:56A4H         LINE#         2348
  C:56A6H         LINE#         2349
  C:56A6H         LINE#         2350
  C:56ACH         LINE#         2351
  C:56AEH         LINE#         2352
  C:56AEH         LINE#         2353
  C:56B4H         LINE#         2354
  C:56B6H         LINE#         2355
  C:56B6H         LINE#         2356
  C:56CBH         LINE#         2357
  C:56CBH         LINE#         2358
  C:56CBH         LINE#         2359
  C:56D2H         LINE#         2360
  C:5712H         LINE#         2361
  C:5712H         LINE#         2362
  C:5712H         LINE#         2363
  C:5718H         LINE#         2364
  C:571AH         LINE#         2365
  C:571AH         LINE#         2366
  C:5720H         LINE#         2367
  C:5722H         LINE#         2368
  C:5722H         LINE#         2369
  C:5728H         LINE#         2370
  C:572AH         LINE#         2371
  C:572AH         LINE#         2372
  C:5730H         LINE#         2373
  C:5732H         LINE#         2374
  C:5732H         LINE#         2375
  C:5738H         LINE#         2376
  C:573AH         LINE#         2377
  C:573AH         LINE#         2378
  C:5740H         LINE#         2379
  C:5742H         LINE#         2380
  C:5742H         LINE#         2381
  C:5748H         LINE#         2382
  C:574AH         LINE#         2383
  C:574AH         LINE#         2384
  C:5750H         LINE#         2385
  C:5752H         LINE#         2386
  C:5752H         LINE#         2387
  C:5758H         LINE#         2388
  C:575AH         LINE#         2389
  C:575AH         LINE#         2390
BL51 BANKED LINKER/LOCATER V6.22                                                      05/27/2019  15:40:45  PAGE 72


  C:5760H         LINE#         2391
  C:5762H         LINE#         2392
  C:5762H         LINE#         2393
  C:5768H         LINE#         2394
  C:576AH         LINE#         2395
  C:576AH         LINE#         2396
  C:577FH         LINE#         2397
  C:577FH         LINE#         2398
  C:577FH         LINE#         2399
  C:5786H         LINE#         2400
  C:579BH         LINE#         2401
  C:57A2H         LINE#         2403
  C:57A7H         LINE#         2404
  C:57A7H         LINE#         2405
  C:57ABH         LINE#         2406
  C:57ADH         LINE#         2408
  C:57ADH         LINE#         2409
  C:57C0H         LINE#         2410
  C:57C0H         LINE#         2442
  C:57C7H         LINE#         2443
  C:57E7H         LINE#         2445
  C:581EH         LINE#         2446
  C:581EH         LINE#         2447
  C:581EH         LINE#         2448
  C:5824H         LINE#         2449
  C:5826H         LINE#         2450
  C:5826H         LINE#         2451
  C:582CH         LINE#         2452
  C:582EH         LINE#         2453
  C:582EH         LINE#         2454
  C:5834H         LINE#         2455
  C:5836H         LINE#         2456
  C:5836H         LINE#         2457
  C:583CH         LINE#         2458
  C:583EH         LINE#         2459
  C:583EH         LINE#         2460
  C:5844H         LINE#         2461
  C:5846H         LINE#         2462
  C:5846H         LINE#         2463
  C:584CH         LINE#         2464
  C:584EH         LINE#         2465
  C:584EH         LINE#         2466
  C:5854H         LINE#         2467
  C:5856H         LINE#         2468
  C:5856H         LINE#         2469
  C:585CH         LINE#         2470
  C:585EH         LINE#         2471
  C:585EH         LINE#         2472
  C:5864H         LINE#         2473
  C:5866H         LINE#         2474
  C:5866H         LINE#         2475
  C:586CH         LINE#         2476
  C:586EH         LINE#         2477
  C:586EH         LINE#         2478
  C:5874H         LINE#         2479
  C:5876H         LINE#         2480
  C:5876H         LINE#         2481
BL51 BANKED LINKER/LOCATER V6.22                                                      05/27/2019  15:40:45  PAGE 73


  C:588BH         LINE#         2482
  C:588BH         LINE#         2483
  C:588BH         LINE#         2485
  C:5892H         LINE#         2486
  C:58A7H         LINE#         2487
  C:58AEH         LINE#         2489
  C:58CDH         LINE#         2490
  C:58CDH         LINE#         2491
  C:58CDH         LINE#         2492
  C:58D3H         LINE#         2493
  C:58D5H         LINE#         2494
  C:58D5H         LINE#         2495
  C:58DBH         LINE#         2496
  C:58DDH         LINE#         2497
  C:58DDH         LINE#         2498
  C:58E3H         LINE#         2499
  C:58E5H         LINE#         2500
  C:58E5H         LINE#         2501
  C:58FAH         LINE#         2502
  C:58FAH         LINE#         2503
  C:58FAH         LINE#         2504
  C:5901H         LINE#         2505
  C:5909H         LINE#         2506
  C:5909H         LINE#         2507
  C:591EH         LINE#         2508
  C:591EH         LINE#         2510
  C:5925H         LINE#         2512
  C:595FH         LINE#         2513
  C:595FH         LINE#         2514
  C:595FH         LINE#         2515
  C:5965H         LINE#         2516
  C:5967H         LINE#         2517
  C:5967H         LINE#         2518
  C:596DH         LINE#         2519
  C:596FH         LINE#         2520
  C:596FH         LINE#         2521
  C:5975H         LINE#         2522
  C:5977H         LINE#         2523
  C:5977H         LINE#         2524
  C:597DH         LINE#         2525
  C:597FH         LINE#         2526
  C:597FH         LINE#         2527
  C:5985H         LINE#         2528
  C:5987H         LINE#         2529
  C:5987H         LINE#         2530
  C:598DH         LINE#         2531
  C:598FH         LINE#         2532
  C:598FH         LINE#         2533
  C:5995H         LINE#         2534
  C:5997H         LINE#         2535
  C:5997H         LINE#         2536
  C:599DH         LINE#         2537
  C:599FH         LINE#         2538
  C:599FH         LINE#         2539
  C:59A5H         LINE#         2540
  C:59A7H         LINE#         2541
  C:59A7H         LINE#         2542
BL51 BANKED LINKER/LOCATER V6.22                                                      05/27/2019  15:40:45  PAGE 74


  C:59BCH         LINE#         2543
  C:59BCH         LINE#         2544
  C:59BCH         LINE#         2546
  -------         ENDPROC       _SHOW_LUNAR
  -------         PROC          HB_SHOW_WEEK
  X:006EH         SYMBOL        str_time
  C:9C64H         LINE#         2554
  C:9C64H         LINE#         2555
  C:9C64H         LINE#         2556
  -------         ENDPROC       HB_SHOW_WEEK
  -------         PROC          HB_SHOW_HOUR
  X:006EH         SYMBOL        str_time
  -------         DO            
  X:0074H         SYMBOL        tmp
  -------         ENDDO         
  C:89E6H         LINE#         2559
  C:89E6H         LINE#         2560
  C:89E6H         LINE#         2563
  C:89F5H         LINE#         2564
  C:8A28H         LINE#         2565
  -------         ENDPROC       HB_SHOW_HOUR
  -------         PROC          HB_SHOW_MIN
  X:006EH         SYMBOL        str_time
  -------         DO            
  X:0074H         SYMBOL        tmp
  -------         ENDDO         
  C:8E89H         LINE#         2567
  C:8E89H         LINE#         2568
  C:8E89H         LINE#         2570
  C:8E98H         LINE#         2571
  C:8EACH         LINE#         2572
  -------         ENDPROC       HB_SHOW_MIN
  -------         PROC          HB_SHOW_SEC
  X:006EH         SYMBOL        str_time
  -------         DO            
  X:0074H         SYMBOL        tmp
  -------         ENDDO         
  C:8AE2H         LINE#         2574
  C:8AE2H         LINE#         2575
  C:8AE2H         LINE#         2577
  C:8AEFH         LINE#         2578
  C:8B22H         LINE#         2579
  -------         ENDPROC       HB_SHOW_SEC
  -------         PROC          HB_SHOW_TIME
  X:0068H         SYMBOL        str_time
  C:8296H         LINE#         2582
  C:8296H         LINE#         2583
  C:8296H         LINE#         2584
  C:829DH         LINE#         2585
  C:82B2H         LINE#         2586
  C:82B9H         LINE#         2587
  C:82CEH         LINE#         2588
  C:82D5H         LINE#         2589
  C:82EBH         LINE#         2591
  C:8301H         LINE#         2592
  C:831EH         LINE#         2593
  C:8334H         LINE#         2594
BL51 BANKED LINKER/LOCATER V6.22                                                      05/27/2019  15:40:45  PAGE 75


  C:8351H         LINE#         2595
  -------         ENDPROC       HB_SHOW_TIME
  -------         PROC          _HB_SHOW_TEMP
  D:0004H         SYMBOL        int_tmp
  X:0068H         SYMBOL        dec_tmp
  -------         DO            
  X:0069H         SYMBOL        tmp
  D:0007H         SYMBOL        symbol
  X:006CH         SYMBOL        dec_temper
  -------         ENDDO         
  C:7F2CH         LINE#         2601
  C:7F33H         LINE#         2602
  C:7F33H         LINE#         2604
  C:7F35H         LINE#         2605
  C:7F3BH         LINE#         2606
  C:7F3FH         LINE#         2607
  C:7F3FH         LINE#         2608
  C:7F40H         LINE#         2609
  C:7F42H         LINE#         2611
  C:7F4AH         LINE#         2612
  C:7F50H         LINE#         2614
  C:7F53H         LINE#         2615
  C:7F53H         LINE#         2616
  C:7F54H         LINE#         2617
  C:7F56H         LINE#         2618
  C:7F56H         LINE#         2619
  C:7F56H         LINE#         2620
  C:7F5CH         LINE#         2621
  C:7F5CH         LINE#         2622
  C:7F60H         LINE#         2623
  C:7F60H         LINE#         2624
  C:7F62H         LINE#         2626
  C:7F62H         LINE#         2627
  C:7F71H         LINE#         2628
  C:7F74H         LINE#         2629
  C:7F74H         LINE#         2630
  C:7F7FH         LINE#         2631
  C:7F90H         LINE#         2632
  C:7F93H         LINE#         2634
  C:7FA4H         LINE#         2635
  C:7FA7H         LINE#         2637
  C:7FB6H         LINE#         2638
  C:7FCCH         LINE#         2639
  C:7FDBH         LINE#         2640
  C:7FE4H         LINE#         2641
  C:7FEBH         LINE#         2642
  C:7FFCH         LINE#         2643
  -------         ENDPROC       _HB_SHOW_TEMP
  -------         PROC          SHOW_SET
  C:9CA5H         LINE#         2647
  C:9CA5H         LINE#         2648
  C:9CA5H         LINE#         2649
  -------         ENDPROC       SHOW_SET
  -------         PROC          CLEAN_SET
  C:993FH         LINE#         2651
  C:993FH         LINE#         2652
  C:993FH         LINE#         2653
BL51 BANKED LINKER/LOCATER V6.22                                                      05/27/2019  15:40:45  PAGE 76


  C:9944H         LINE#         2654
  C:9949H         LINE#         2655
  C:994EH         LINE#         2656
  C:9953H         LINE#         2657
  C:9958H         LINE#         2658
  C:995BH         LINE#         2659
  -------         ENDPROC       CLEAN_SET
  -------         PROC          SET_STOP_BLINK
  C:9960H         LINE#         2661
  C:9960H         LINE#         2662
  C:9960H         LINE#         2663
  C:9965H         LINE#         2664
  C:996AH         LINE#         2665
  C:996FH         LINE#         2666
  C:9974H         LINE#         2667
  C:9979H         LINE#         2668
  C:997CH         LINE#         2669
  -------         ENDPROC       SET_STOP_BLINK
  -------         PROC          SET_START_BLINK
  C:9981H         LINE#         2671
  C:9981H         LINE#         2672
  C:9981H         LINE#         2673
  C:9986H         LINE#         2674
  C:998BH         LINE#         2675
  C:9990H         LINE#         2676
  C:9995H         LINE#         2677
  C:999AH         LINE#         2678
  C:999DH         LINE#         2679
  -------         ENDPROC       SET_START_BLINK
  -------         PROC          _SHOW_ALARM_DAY
  D:0007H         SYMBOL        i
  C:80EAH         LINE#         2686
  C:80EAH         LINE#         2687
  C:80EAH         LINE#         2688
  C:8107H         LINE#         2689
  C:8107H         LINE#         2690
  C:8107H         LINE#         2691
  C:810EH         LINE#         2692
  C:8113H         LINE#         2695
  C:8118H         LINE#         2696
  C:811DH         LINE#         2697
  C:811FH         LINE#         2698
  C:811FH         LINE#         2699
  C:8122H         LINE#         2700
  C:8122H         LINE#         2701
  C:8129H         LINE#         2702
  C:812EH         LINE#         2705
  C:8133H         LINE#         2706
  C:8138H         LINE#         2707
  C:8139H         LINE#         2708
  C:8139H         LINE#         2709
  C:813CH         LINE#         2710
  C:813CH         LINE#         2711
  C:8143H         LINE#         2712
  C:8148H         LINE#         2715
  C:814DH         LINE#         2716
  C:8152H         LINE#         2717
BL51 BANKED LINKER/LOCATER V6.22                                                      05/27/2019  15:40:45  PAGE 77


  C:8154H         LINE#         2718
  C:8154H         LINE#         2719
  C:8156H         LINE#         2720
  C:8156H         LINE#         2721
  C:815DH         LINE#         2722
  C:8162H         LINE#         2725
  C:8167H         LINE#         2726
  C:816CH         LINE#         2727
  C:816DH         LINE#         2728
  C:816DH         LINE#         2729
  C:816FH         LINE#         2730
  C:816FH         LINE#         2731
  C:8176H         LINE#         2732
  C:817BH         LINE#         2735
  C:8180H         LINE#         2736
  C:8185H         LINE#         2737
  C:8187H         LINE#         2738
  C:8187H         LINE#         2739
  C:8189H         LINE#         2740
  C:8189H         LINE#         2741
  C:8190H         LINE#         2742
  C:8195H         LINE#         2745
  C:819AH         LINE#         2746
  C:819FH         LINE#         2747
  C:81A1H         LINE#         2748
  C:81A1H         LINE#         2749
  C:81A3H         LINE#         2750
  C:81A3H         LINE#         2751
  C:81AAH         LINE#         2752
  C:81AFH         LINE#         2755
  C:81B4H         LINE#         2756
  C:81B9H         LINE#         2757
  C:81BEH         LINE#         2758
  C:81C3H         LINE#         2759
  C:81C3H         LINE#         2761
  C:81C3H         LINE#         2762
  -------         ENDPROC       _SHOW_ALARM_DAY
  -------         PROC          _CLEAN_ALARM_DAY
  D:0007H         SYMBOL        i
  C:9003H         LINE#         2766
  C:9003H         LINE#         2767
  C:9003H         LINE#         2768
  C:9020H         LINE#         2769
  C:9020H         LINE#         2770
  C:9020H         LINE#         2771
  C:9020H         LINE#         2772
  C:9020H         LINE#         2773
  C:9023H         LINE#         2774
  C:9024H         LINE#         2775
  C:9024H         LINE#         2776
  C:9024H         LINE#         2777
  C:9024H         LINE#         2778
  C:9026H         LINE#         2779
  C:9026H         LINE#         2780
  C:9026H         LINE#         2781
  C:9026H         LINE#         2782
  C:9029H         LINE#         2783
BL51 BANKED LINKER/LOCATER V6.22                                                      05/27/2019  15:40:45  PAGE 78


  C:902BH         LINE#         2784
  C:902BH         LINE#         2785
  C:902BH         LINE#         2786
  C:902BH         LINE#         2787
  C:902DH         LINE#         2788
  C:902DH         LINE#         2789
  C:902DH         LINE#         2790
  C:902DH         LINE#         2791
  C:9030H         LINE#         2792
  C:9032H         LINE#         2793
  C:9032H         LINE#         2794
  C:9032H         LINE#         2795
  C:9032H         LINE#         2796
  C:9034H         LINE#         2797
  C:9034H         LINE#         2798
  C:9034H         LINE#         2799
  C:9034H         LINE#         2800
  C:9037H         LINE#         2801
  C:9039H         LINE#         2802
  C:9039H         LINE#         2803
  C:9039H         LINE#         2804
  C:9039H         LINE#         2805
  C:903BH         LINE#         2806
  C:903BH         LINE#         2807
  C:903BH         LINE#         2808
  C:903BH         LINE#         2809
  C:903EH         LINE#         2810
  C:9040H         LINE#         2811
  C:9040H         LINE#         2812
  C:9040H         LINE#         2813
  C:9040H         LINE#         2814
  C:9042H         LINE#         2815
  C:9042H         LINE#         2816
  C:9042H         LINE#         2817
  C:9042H         LINE#         2818
  C:9045H         LINE#         2819
  C:9047H         LINE#         2820
  C:9047H         LINE#         2821
  C:9047H         LINE#         2822
  C:9047H         LINE#         2823
  C:9049H         LINE#         2824
  C:9049H         LINE#         2825
  C:9049H         LINE#         2826
  C:9049H         LINE#         2827
  C:904CH         LINE#         2828
  C:9051H         LINE#         2829
  C:9056H         LINE#         2830
  C:905BH         LINE#         2831
  C:905FH         LINE#         2832
  C:905FH         LINE#         2833
  C:905FH         LINE#         2834
  -------         ENDPROC       _CLEAN_ALARM_DAY
  -------         PROC          CLEAN_ALARM_ALL
  C:0003H         LINE#         2850
  C:0003H         LINE#         2851
  C:0003H         LINE#         2852
  C:0008H         LINE#         2853
BL51 BANKED LINKER/LOCATER V6.22                                                      05/27/2019  15:40:45  PAGE 79


  C:000DH         LINE#         2854
  C:0011H         LINE#         2855
  C:0014H         LINE#         2856
  C:0019H         LINE#         2857
  C:001EH         LINE#         2858
  -------         ENDPROC       CLEAN_ALARM_ALL
  -------         PROC          _SHOW_ALARM_ALL
  D:0004H         SYMBOL        alarm_set
  -------         DO            
  D:0002H         SYMBOL        i
  -------         ENDDO         
  C:94BBH         LINE#         2861
  C:94BDH         LINE#         2862
  C:94BDH         LINE#         2864
  C:94C0H         LINE#         2865
  C:94C3H         LINE#         2866
  C:94C3H         LINE#         2867
  C:94DFH         LINE#         2868
  C:94DFH         LINE#         2869
  C:94E4H         LINE#         2870
  C:94E4H         LINE#         2871
  C:94EFH         LINE#         2872
  -------         ENDPROC       _SHOW_ALARM_ALL
  -------         PROC          SHOW_ALARM
  C:9CBAH         LINE#         2874
  C:9CBAH         LINE#         2875
  C:9CBAH         LINE#         2876
  -------         ENDPROC       SHOW_ALARM
  -------         PROC          START_BLINK_ALARM
  C:9870H         LINE#         2878
  C:9870H         LINE#         2879
  C:9870H         LINE#         2880
  C:9875H         LINE#         2881
  C:987AH         LINE#         2882
  C:987FH         LINE#         2883
  C:9884H         LINE#         2884
  C:9889H         LINE#         2885
  C:988EH         LINE#         2886
  -------         ENDPROC       START_BLINK_ALARM
  -------         PROC          STOP_BLINK_ALARM
  C:9893H         LINE#         2888
  C:9893H         LINE#         2889
  C:9893H         LINE#         2890
  C:9898H         LINE#         2891
  C:989DH         LINE#         2892
  C:98A2H         LINE#         2893
  C:98A7H         LINE#         2894
  C:98ACH         LINE#         2895
  C:98B1H         LINE#         2896
  -------         ENDPROC       STOP_BLINK_ALARM
  -------         PROC          _START_BLINK_WEEK
  D:0007H         SYMBOL        i
  C:87B6H         LINE#         2900
  C:87B6H         LINE#         2901
  C:87B6H         LINE#         2902
  C:87D3H         LINE#         2903
  C:87D3H         LINE#         2904
BL51 BANKED LINKER/LOCATER V6.22                                                      05/27/2019  15:40:45  PAGE 80


  C:87D3H         LINE#         2905
  C:87D8H         LINE#         2906
  C:87DAH         LINE#         2907
  C:87DDH         LINE#         2908
  C:87DEH         LINE#         2909
  C:87DEH         LINE#         2910
  C:87DEH         LINE#         2911
  C:87DEH         LINE#         2912
  C:87E0H         LINE#         2913
  C:87E0H         LINE#         2914
  C:87E5H         LINE#         2915
  C:87E7H         LINE#         2916
  C:87EAH         LINE#         2917
  C:87ECH         LINE#         2918
  C:87ECH         LINE#         2919
  C:87ECH         LINE#         2920
  C:87ECH         LINE#         2921
  C:87EEH         LINE#         2922
  C:87EEH         LINE#         2923
  C:87F3H         LINE#         2924
  C:87F5H         LINE#         2925
  C:87F8H         LINE#         2926
  C:87FAH         LINE#         2927
  C:87FAH         LINE#         2928
  C:87FAH         LINE#         2929
  C:87FAH         LINE#         2930
  C:87FCH         LINE#         2931
  C:87FCH         LINE#         2932
  C:8801H         LINE#         2933
  C:8803H         LINE#         2934
  C:8806H         LINE#         2935
  C:8808H         LINE#         2936
  C:8808H         LINE#         2937
  C:8808H         LINE#         2938
  C:8808H         LINE#         2939
  C:880AH         LINE#         2940
  C:880AH         LINE#         2941
  C:880FH         LINE#         2942
  C:8811H         LINE#         2943
  C:8814H         LINE#         2944
  C:8816H         LINE#         2945
  C:8816H         LINE#         2946
  C:8816H         LINE#         2947
  C:8816H         LINE#         2948
  C:8818H         LINE#         2949
  C:8818H         LINE#         2950
  C:881DH         LINE#         2951
  C:881FH         LINE#         2952
  C:8822H         LINE#         2953
  C:8824H         LINE#         2954
  C:8824H         LINE#         2955
  C:8824H         LINE#         2956
  C:8824H         LINE#         2957
  C:8826H         LINE#         2958
  C:8826H         LINE#         2959
  C:882BH         LINE#         2960
  C:882DH         LINE#         2961
BL51 BANKED LINKER/LOCATER V6.22                                                      05/27/2019  15:40:45  PAGE 81


  C:8830H         LINE#         2962
  C:8835H         LINE#         2963
  C:883AH         LINE#         2964
  C:883FH         LINE#         2965
  C:8843H         LINE#         2966
  C:8843H         LINE#         2967
  C:8843H         LINE#         2968
  -------         ENDPROC       _START_BLINK_WEEK
  -------         PROC          _STOP_BLINK_WEEK
  D:0007H         SYMBOL        i
  C:8DBCH         LINE#         2969
  C:8DBCH         LINE#         2970
  C:8DBCH         LINE#         2971
  C:8DD9H         LINE#         2972
  C:8DD9H         LINE#         2973
  C:8DD9H         LINE#         2974
  C:8DDBH         LINE#         2975
  C:8DDBH         LINE#         2976
  C:8DDEH         LINE#         2977
  C:8DDFH         LINE#         2978
  C:8DDFH         LINE#         2979
  C:8DDFH         LINE#         2980
  C:8DDFH         LINE#         2981
  C:8DE1H         LINE#         2982
  C:8DE1H         LINE#         2983
  C:8DE3H         LINE#         2984
  C:8DE3H         LINE#         2985
  C:8DE6H         LINE#         2986
  C:8DE8H         LINE#         2987
  C:8DE8H         LINE#         2988
  C:8DE8H         LINE#         2989
  C:8DE8H         LINE#         2990
  C:8DEAH         LINE#         2991
  C:8DEAH         LINE#         2992
  C:8DECH         LINE#         2993
  C:8DECH         LINE#         2994
  C:8DEFH         LINE#         2995
  C:8DF1H         LINE#         2996
  C:8DF1H         LINE#         2997
  C:8DF1H         LINE#         2998
  C:8DF1H         LINE#         2999
  C:8DF3H         LINE#         3000
  C:8DF3H         LINE#         3001
  C:8DF5H         LINE#         3002
  C:8DF5H         LINE#         3003
  C:8DF8H         LINE#         3004
  C:8DFAH         LINE#         3005
  C:8DFAH         LINE#         3006
  C:8DFAH         LINE#         3007
  C:8DFAH         LINE#         3008
  C:8DFCH         LINE#         3009
  C:8DFCH         LINE#         3010
  C:8DFEH         LINE#         3011
  C:8DFEH         LINE#         3012
  C:8E01H         LINE#         3013
  C:8E03H         LINE#         3014
  C:8E03H         LINE#         3015
BL51 BANKED LINKER/LOCATER V6.22                                                      05/27/2019  15:40:45  PAGE 82


  C:8E03H         LINE#         3016
  C:8E03H         LINE#         3017
  C:8E05H         LINE#         3018
  C:8E05H         LINE#         3019
  C:8E07H         LINE#         3020
  C:8E07H         LINE#         3021
  C:8E0AH         LINE#         3022
  C:8E0CH         LINE#         3023
  C:8E0CH         LINE#         3024
  C:8E0CH         LINE#         3025
  C:8E0CH         LINE#         3026
  C:8E0EH         LINE#         3027
  C:8E0EH         LINE#         3028
  C:8E10H         LINE#         3029
  C:8E10H         LINE#         3030
  C:8E13H         LINE#         3031
  C:8E18H         LINE#         3032
  C:8E1DH         LINE#         3033
  C:8E22H         LINE#         3034
  C:8E26H         LINE#         3035
  C:8E26H         LINE#         3036
  C:8E26H         LINE#         3037
  -------         ENDPROC       _STOP_BLINK_WEEK
  -------         PROC          SHOW_TIME_ONLY
  X:0056H         SYMBOL        str_time
  -------         DO            
  X:005CH         SYMBOL        tmp
  -------         ENDDO         
  C:71B7H         LINE#         3045
  C:71B7H         LINE#         3046
  C:71B7H         LINE#         3048
  C:71C6H         LINE#         3049
  C:71F9H         LINE#         3050
  C:7236H         LINE#         3051
  C:7253H         LINE#         3052
  C:7262H         LINE#         3053
  C:7276H         LINE#         3054
  C:72B3H         LINE#         3055
  C:72D0H         LINE#         3056
  C:72DDH         LINE#         3057
  C:7310H         LINE#         3058
  -------         ENDPROC       SHOW_TIME_ONLY
  -------         PROC          _SHOW_VOLUME
  D:0006H         SYMBOL        volume
  C:78A1H         LINE#         3060
  C:78A3H         LINE#         3061
  C:78A3H         LINE#         3062
  C:78C0H         LINE#         3063
  C:78DDH         LINE#         3064
  C:78FAH         LINE#         3065
  C:7917H         LINE#         3066
  C:7934H         LINE#         3067
  C:7951H         LINE#         3068
  C:796EH         LINE#         3069
  C:798BH         LINE#         3071
  C:79B5H         LINE#         3072
  -------         ENDPROC       _SHOW_VOLUME
BL51 BANKED LINKER/LOCATER V6.22                                                      05/27/2019  15:40:45  PAGE 83


  -------         PROC          _SHOW_CHOOSE_MUSIC
  D:0006H         SYMBOL        music_num
  C:59C3H         LINE#         3076
  C:59C5H         LINE#         3077
  C:59C5H         LINE#         3079
  C:59CAH         LINE#         3080
  C:59CFH         LINE#         3081
  C:59D4H         LINE#         3082
  C:59D9H         LINE#         3083
  C:59DEH         LINE#         3084
  C:59E3H         LINE#         3085
  C:59E8H         LINE#         3086
  C:59EDH         LINE#         3087
  C:59F2H         LINE#         3088
  C:59F7H         LINE#         3089
  C:59FCH         LINE#         3090
  C:5A01H         LINE#         3091
  C:5A06H         LINE#         3092
  C:5A0BH         LINE#         3093
  C:5A10H         LINE#         3094
  C:5A15H         LINE#         3095
  C:5A1AH         LINE#         3096
  C:5A1FH         LINE#         3097
  C:5A24H         LINE#         3098
  C:5A29H         LINE#         3099
  C:5A2EH         LINE#         3100
  C:5A33H         LINE#         3101
  C:5A38H         LINE#         3102
  C:5A3DH         LINE#         3104
  C:5A42H         LINE#         3105
  C:5A47H         LINE#         3106
  C:5A4CH         LINE#         3107
  C:5A51H         LINE#         3108
  C:5A56H         LINE#         3109
  C:5A5BH         LINE#         3110
  C:5A60H         LINE#         3111
  C:5A65H         LINE#         3112
  C:5A6AH         LINE#         3113
  C:5A6FH         LINE#         3114
  C:5A74H         LINE#         3115
  C:5A79H         LINE#         3116
  C:5A7EH         LINE#         3117
  C:5A83H         LINE#         3118
  C:5A88H         LINE#         3119
  C:5A8DH         LINE#         3120
  C:5A92H         LINE#         3121
  C:5A97H         LINE#         3122
  C:5A9CH         LINE#         3123
  C:5AA1H         LINE#         3126
  C:5AABH         LINE#         3127
  C:5AABH         LINE#         3128
  C:5AABH         LINE#         3129
  C:5AABH         LINE#         3130
  C:5AABH         LINE#         3131
  C:5AABH         LINE#         3132
  C:5AABH         LINE#         3133
  C:5AABH         LINE#         3134
BL51 BANKED LINKER/LOCATER V6.22                                                      05/27/2019  15:40:45  PAGE 84


  C:5AABH         LINE#         3135
  C:5AABH         LINE#         3136
  C:5AABH         LINE#         3137
  C:5AABH         LINE#         3138
  C:5AABH         LINE#         3139
  C:5AABH         LINE#         3140
  C:5AABH         LINE#         3141
  C:5AADH         LINE#         3142
  C:5AADH         LINE#         3143
  C:5AB2H         LINE#         3144
  C:5AB7H         LINE#         3145
  C:5ABCH         LINE#         3146
  C:5AC1H         LINE#         3147
  C:5AC6H         LINE#         3148
  C:5ACBH         LINE#         3149
  C:5ACEH         LINE#         3150
  C:5AD0H         LINE#         3151
  C:5AD0H         LINE#         3152
  C:5AD0H         LINE#         3153
  C:5AD0H         LINE#         3154
  C:5AD0H         LINE#         3155
  C:5AD2H         LINE#         3156
  C:5AD2H         LINE#         3157
  C:5AD7H         LINE#         3158
  C:5ADCH         LINE#         3159
  C:5AE1H         LINE#         3160
  C:5AE6H         LINE#         3161
  C:5AEBH         LINE#         3162
  C:5AF0H         LINE#         3163
  C:5AF3H         LINE#         3164
  C:5AF8H         LINE#         3165
  C:5AFDH         LINE#         3166
  C:5B02H         LINE#         3167
  C:5B07H         LINE#         3168
  C:5B09H         LINE#         3169
  C:5B0BH         LINE#         3170
  C:5B10H         LINE#         3172
  C:5B15H         LINE#         3173
  C:5B1AH         LINE#         3174
  C:5B1FH         LINE#         3175
  C:5B24H         LINE#         3176
  C:5B29H         LINE#         3177
  C:5B2CH         LINE#         3178
  C:5B31H         LINE#         3179
  C:5B36H         LINE#         3180
  C:5B3BH         LINE#         3181
  C:5B40H         LINE#         3182
  C:5B45H         LINE#         3183
  C:5B45H         LINE#         3185
  C:5B45H         LINE#         3190
  C:5B4AH         LINE#         3191
  C:5B4FH         LINE#         3192
  C:5B54H         LINE#         3193
  C:5B59H         LINE#         3194
  C:5B5EH         LINE#         3195
  C:5B63H         LINE#         3196
  C:5B68H         LINE#         3197
BL51 BANKED LINKER/LOCATER V6.22                                                      05/27/2019  15:40:45  PAGE 85


  C:5B6DH         LINE#         3198
  C:5B72H         LINE#         3199
  C:5B77H         LINE#         3200
  C:5B7CH         LINE#         3201
  C:5B81H         LINE#         3202
  C:5B86H         LINE#         3203
  C:5B8BH         LINE#         3204
  C:5B90H         LINE#         3205
  C:5B95H         LINE#         3206
  C:5B9AH         LINE#         3207
  C:5B9FH         LINE#         3208
  C:5BA4H         LINE#         3209
  C:5BA9H         LINE#         3210
  C:5BAEH         LINE#         3211
  C:5BB3H         LINE#         3212
  C:5BB8H         LINE#         3213
  C:5BBDH         LINE#         3214
  C:5BC2H         LINE#         3215
  C:5BC7H         LINE#         3216
  C:5BCCH         LINE#         3217
  C:5BD1H         LINE#         3220
  C:5BD6H         LINE#         3221
  C:5BDBH         LINE#         3222
  C:5BE0H         LINE#         3223
  C:5BE5H         LINE#         3224
  C:5BEAH         LINE#         3225
  C:5BEFH         LINE#         3226
  C:5BF4H         LINE#         3227
  C:5BF9H         LINE#         3228
  C:5BFEH         LINE#         3229
  C:5C03H         LINE#         3230
  C:5C08H         LINE#         3231
  C:5C0DH         LINE#         3232
  C:5C12H         LINE#         3233
  C:5C17H         LINE#         3234
  C:5C1CH         LINE#         3235
  C:5C21H         LINE#         3236
  C:5C26H         LINE#         3237
  C:5C2BH         LINE#         3238
  C:5C30H         LINE#         3239
  C:5C35H         LINE#         3240
  C:5C3AH         LINE#         3241
  C:5C3FH         LINE#         3242
  C:5C44H         LINE#         3243
  C:5C49H         LINE#         3244
  C:5C4EH         LINE#         3245
  C:5C53H         LINE#         3246
  C:5C58H         LINE#         3247
  C:5C5DH         LINE#         3250
  C:5C62H         LINE#         3251
  C:5C67H         LINE#         3252
  C:5C6CH         LINE#         3253
  C:5C71H         LINE#         3254
  C:5C76H         LINE#         3255
  C:5C7BH         LINE#         3256
  C:5C80H         LINE#         3257
  C:5C85H         LINE#         3258
BL51 BANKED LINKER/LOCATER V6.22                                                      05/27/2019  15:40:45  PAGE 86


  C:5C8AH         LINE#         3259
  C:5C8FH         LINE#         3260
  C:5C94H         LINE#         3261
  C:5C99H         LINE#         3262
  C:5C9EH         LINE#         3263
  C:5CA3H         LINE#         3264
  C:5CA8H         LINE#         3265
  C:5CADH         LINE#         3266
  C:5CB2H         LINE#         3267
  C:5CB7H         LINE#         3268
  C:5CBCH         LINE#         3269
  C:5CC1H         LINE#         3270
  C:5CC6H         LINE#         3271
  C:5CCBH         LINE#         3272
  C:5CD0H         LINE#         3273
  C:5CD5H         LINE#         3274
  C:5CDAH         LINE#         3275
  C:5CDFH         LINE#         3276
  C:5CE4H         LINE#         3277
  -------         ENDPROC       _SHOW_CHOOSE_MUSIC
  -------         ENDMOD        HB

  -------         MODULE        YUYIN
  C:0000H         SYMBOL        _ICE_DUMMY_
  D:0090H         PUBLIC        P1
  D:00A0H         PUBLIC        P2
  C:93D4H         PUBLIC        volume_control
  D:00B0H         PUBLIC        P3
  C:5202H         PUBLIC        check_alarm_time
  B:00A8H.7       PUBLIC        EA
  C:9A76H         PUBLIC        music_screen
  C:922AH         PUBLIC        _SendData
  C:81C4H         PUBLIC        choose_music
  C:8431H         PUBLIC        adjust_volume
  B:00A0H.0       PUBLIC        YYSDA
  C:9D03H         PUBLIC        _Delay1us
  X:009EH         PUBLIC        MUSIC_YY_ADDR
  C:2073H         PUBLIC        broadcast_morning
  X:009FH         PUBLIC        wakeup_late
  B:00A0H.2       PUBLIC        CHOOSE_MUSIC
  C:74E2H         PUBLIC        _broadcast
  C:9396H         PUBLIC        check_now_time
  B:0090H.6       PUBLIC        ADD
  X:00A0H         PUBLIC        music_play_time
  C:6E10H         PUBLIC        _broadcast_temp
  B:0090H.5       PUBLIC        SWITCH
  X:00A1H         PUBLIC        i_alarm
  B:00A0H.3       PUBLIC        VOLUME
  B:0090H.7       PUBLIC        SUB
  B:00A0H.6       PUBLIC        SHAKE
  B:00B0H.6       PUBLIC        ALARM
  C:95E7H         PUBLIC        _welcome_music
  B:00A0H.1       PUBLIC        YYBUSY
  -------         PROC          _DELAY1US
  D:0007H         SYMBOL        z
  -------         DO            
  D:0007H         SYMBOL        v
BL51 BANKED LINKER/LOCATER V6.22                                                      05/27/2019  15:40:45  PAGE 87


  -------         ENDDO         
  C:9D03H         LINE#         32
  C:9D03H         LINE#         33
  C:9D03H         LINE#         35
  C:9D09H         LINE#         36
  C:9D09H         LINE#         37
  C:9D0BH         LINE#         38
  C:9D0DH         LINE#         39
  C:9D0FH         LINE#         40
  C:9D12H         LINE#         41
  -------         ENDPROC       _DELAY1US
  C:9219H         SYMBOL        L?0628
  C:9220H         SYMBOL        L?0629
  C:9224H         SYMBOL        L?0630
  C:9225H         SYMBOL        L?0631
  -------         PROC          L?0627
  -------         ENDPROC       L?0627
  C:9219H         SYMBOL        L?0628
  C:9220H         SYMBOL        L?0629
  C:9224H         SYMBOL        L?0630
  C:9225H         SYMBOL        L?0631
  -------         PROC          _SENDDATA
  D:0006H         SYMBOL        MUSIC_YY_ADDR
  -------         DO            
  D:0005H         SYMBOL        i
  -------         ENDDO         
  C:922AH         LINE#         42
  C:922CH         LINE#         43
  C:922CH         LINE#         46
  C:922EH         LINE#         48
  C:9230H         LINE#         49
  C:9235H         LINE#         50
  C:9237H         LINE#         51
  C:923CH         LINE#         53
  C:923EH         LINE#         54
  C:923EH         LINE#         55
  C:9240H         LINE#         56
  C:9244H         LINE#         57
  C:9244H         LINE#         58
  C:9249H         LINE#         59
  C:924BH         LINE#         60
  C:924DH         LINE#         61
  C:924FH         LINE#         63
  C:924FH         LINE#         64
  C:9254H         LINE#         65
  C:9256H         LINE#         66
  C:925BH         LINE#         67
  C:925BH         LINE#         68
  C:925FH         LINE#         69
  C:9264H         LINE#         70
  C:9266H         LINE#         71
  C:9268H         LINE#         72
  -------         ENDPROC       _SENDDATA
  -------         PROC          CHOOSE_MUSIC
  C:81C4H         LINE#         74
  C:81C4H         LINE#         75
  C:81C4H         LINE#         76
BL51 BANKED LINKER/LOCATER V6.22                                                      05/27/2019  15:40:45  PAGE 88


  C:81C7H         LINE#         77
  C:81CCH         LINE#         78
  C:81D4H         LINE#         79
  C:81D9H         LINE#         80
  C:81DEH         LINE#         81
  C:81DEH         LINE#         82
  C:81DEH         LINE#         83
  C:81E6H         LINE#         86
  C:81EBH         LINE#         87
  C:81F0H         LINE#         88
  C:81FBH         LINE#         89
  C:81FEH         LINE#         90
  C:8201H         LINE#         91
  C:8204H         LINE#         92
  C:8204H         LINE#         93
  C:8207H         LINE#         94
  C:8207H         LINE#         95
  C:820EH         LINE#         96
  C:8211H         LINE#         97
  C:8211H         LINE#         98
  C:8211H         LINE#         99
  C:8211H         LINE#         100
  C:8211H         LINE#         101
  C:8214H         LINE#         102
  C:8214H         LINE#         103
  C:821BH         LINE#         104
  C:821EH         LINE#         105
  C:821EH         LINE#         106
  C:8225H         LINE#         107
  C:8225H         LINE#         108
  C:8227H         LINE#         109
  C:8227H         LINE#         110
  C:822DH         LINE#         111
  C:822FH         LINE#         112
  C:822FH         LINE#         113
  C:822FH         LINE#         114
  C:8232H         LINE#         115
  C:8232H         LINE#         116
  C:8239H         LINE#         117
  C:823CH         LINE#         118
  C:823CH         LINE#         119
  C:8243H         LINE#         120
  C:8243H         LINE#         121
  C:8246H         LINE#         122
  C:8246H         LINE#         123
  C:824CH         LINE#         124
  C:824CH         LINE#         125
  C:824CH         LINE#         126
  C:824CH         LINE#         127
  C:824CH         LINE#         128
  C:824FH         LINE#         129
  C:824FH         LINE#         130
  C:8256H         LINE#         131
  C:8259H         LINE#         132
  C:8259H         LINE#         134
  C:825EH         LINE#         135
  C:8263H         LINE#         136
BL51 BANKED LINKER/LOCATER V6.22                                                      05/27/2019  15:40:45  PAGE 89


  C:8272H         LINE#         137
  C:8277H         LINE#         138
  C:827AH         LINE#         145
  C:8284H         LINE#         146
  C:8284H         LINE#         147
  C:8284H         LINE#         148
  C:8284H         LINE#         149
  C:8290H         LINE#         150
  C:8290H         LINE#         151
  C:8293H         LINE#         152
  C:8293H         LINE#         153
  -------         ENDPROC       CHOOSE_MUSIC
  -------         PROC          MUSIC_SCREEN
  C:9A76H         LINE#         155
  C:9A76H         LINE#         156
  C:9A76H         LINE#         157
  C:9A79H         LINE#         158
  C:9A79H         LINE#         159
  C:9A80H         LINE#         160
  C:9A83H         LINE#         161
  C:9A83H         LINE#         162
  C:9A83H         LINE#         163
  C:9A83H         LINE#         164
  C:9A83H         LINE#         165
  C:9A83H         LINE#         166
  C:9A86H         LINE#         167
  C:9A86H         LINE#         168
  C:9A8DH         LINE#         169
  C:9A90H         LINE#         170
  C:9A90H         LINE#         171
  C:9A93H         LINE#         172
  C:9A93H         LINE#         173
  C:9A93H         LINE#         174
  C:9A93H         LINE#         175
  C:9A93H         LINE#         176
  C:9A93H         LINE#         177
  C:9A93H         LINE#         178
  -------         ENDPROC       MUSIC_SCREEN
  -------         PROC          ADJUST_VOLUME
  C:8431H         LINE#         179
  C:8431H         LINE#         180
  C:8431H         LINE#         182
  C:8436H         LINE#         183
  C:843EH         LINE#         184
  C:8443H         LINE#         185
  C:8448H         LINE#         186
  C:8448H         LINE#         187
  C:8448H         LINE#         188
  C:8450H         LINE#         190
  C:8453H         LINE#         191
  C:8453H         LINE#         192
  C:845AH         LINE#         193
  C:845DH         LINE#         194
  C:845DH         LINE#         195
  C:8464H         LINE#         196
  C:8464H         LINE#         197
  C:8466H         LINE#         198
BL51 BANKED LINKER/LOCATER V6.22                                                      05/27/2019  15:40:45  PAGE 90


  C:8466H         LINE#         199
  C:846CH         LINE#         200
  C:8471H         LINE#         201
  C:8476H         LINE#         202
  C:847BH         LINE#         203
  C:8480H         LINE#         205
  C:8485H         LINE#         206
  C:848AH         LINE#         207
  C:848CH         LINE#         208
  C:848FH         LINE#         209
  C:8492H         LINE#         210
  C:8495H         LINE#         211
  C:8495H         LINE#         212
  C:8495H         LINE#         213
  C:8498H         LINE#         214
  C:8498H         LINE#         215
  C:849FH         LINE#         216
  C:84A2H         LINE#         217
  C:84A2H         LINE#         218
  C:84A8H         LINE#         219
  C:84A8H         LINE#         220
  C:84ABH         LINE#         221
  C:84ABH         LINE#         222
  C:84B1H         LINE#         223
  C:84B6H         LINE#         224
  C:84BBH         LINE#         225
  C:84C0H         LINE#         226
  C:84C5H         LINE#         228
  C:84CAH         LINE#         229
  C:84CFH         LINE#         230
  C:84D1H         LINE#         231
  C:84D4H         LINE#         232
  C:84D7H         LINE#         233
  C:84DAH         LINE#         234
  C:84DAH         LINE#         235
  C:84DAH         LINE#         236
  C:84E0H         LINE#         237
  C:84E0H         LINE#         238
  C:84E7H         LINE#         239
  C:84EDH         LINE#         240
  C:84EDH         LINE#         241
  C:84F0H         LINE#         242
  C:84F0H         LINE#         243
  C:84F0H         LINE#         244
  C:84F0H         LINE#         245
  C:84F0H         LINE#         247
  -------         ENDPROC       ADJUST_VOLUME
  -------         PROC          VOLUME_CONTROL
  C:93D4H         LINE#         250
  C:93D4H         LINE#         251
  C:93D4H         LINE#         252
  C:93E3H         LINE#         253
  C:93E3H         LINE#         254
  C:93E9H         LINE#         255
  C:93ECH         LINE#         256
  C:93ECH         LINE#         257
  C:93ECH         LINE#         258
BL51 BANKED LINKER/LOCATER V6.22                                                      05/27/2019  15:40:45  PAGE 91


  C:93ECH         LINE#         259
  C:93EFH         LINE#         260
  C:93EFH         LINE#         261
  C:93F6H         LINE#         262
  C:93F9H         LINE#         263
  C:93F9H         LINE#         264
  C:9406H         LINE#         265
  C:9406H         LINE#         266
  C:9409H         LINE#         267
  C:9409H         LINE#         268
  C:940CH         LINE#         269
  C:940FH         LINE#         270
  C:940FH         LINE#         271
  C:940FH         LINE#         272
  C:940FH         LINE#         273
  C:940FH         LINE#         274
  -------         ENDPROC       VOLUME_CONTROL
  C:74DEH         SYMBOL        L?0633
  -------         PROC          L?0632
  -------         ENDPROC       L?0632
  C:74DEH         SYMBOL        L?0633
  -------         PROC          _BROADCAST
  D:0007H         SYMBOL        temp
  D:0005H         SYMBOL        flag
  -------         DO            
  X:005CH         SYMBOL        shiwei
  X:005DH         SYMBOL        gewei
  D:0006H         SYMBOL        int_temp
  -------         ENDDO         
  C:74E2H         LINE#         278
  C:74E2H         LINE#         279
  C:74E2H         LINE#         282
  C:74E4H         LINE#         283
  C:74EFH         LINE#         284
  C:74F8H         LINE#         285
  C:7500H         LINE#         286
  C:7500H         LINE#         287
  C:7509H         LINE#         288
  C:7509H         LINE#         289
  C:7509H         LINE#         291
  C:7509H         LINE#         292
  C:7509H         LINE#         293
  C:7509H         LINE#         294
  C:7509H         LINE#         295
  C:750CH         LINE#         296
  C:750FH         LINE#         297
  C:7512H         LINE#         298
  C:7512H         LINE#         299
  C:7522H         LINE#         300
  C:7525H         LINE#         307
  C:7527H         LINE#         308
  C:7527H         LINE#         309
  C:7527H         LINE#         310
  C:752CH         LINE#         312
  C:7531H         LINE#         313
  C:7535H         LINE#         314
  C:7538H         LINE#         315
BL51 BANKED LINKER/LOCATER V6.22                                                      05/27/2019  15:40:45  PAGE 92


  C:753BH         LINE#         316
  C:753EH         LINE#         317
  C:753EH         LINE#         318
  C:754EH         LINE#         319
  C:7551H         LINE#         326
  C:7553H         LINE#         327
  C:7553H         LINE#         329
  C:7553H         LINE#         330
  C:7553H         LINE#         331
  C:7556H         LINE#         332
  C:7559H         LINE#         333
  C:755CH         LINE#         334
  C:755CH         LINE#         335
  C:756CH         LINE#         336
  C:756FH         LINE#         343
  C:7571H         LINE#         345
  C:7571H         LINE#         346
  C:7571H         LINE#         347
  C:7577H         LINE#         348
  C:7577H         LINE#         349
  C:7577H         LINE#         350
  C:7580H         LINE#         351
  C:7580H         LINE#         352
  C:7585H         LINE#         353
  C:7587H         LINE#         354
  C:7587H         LINE#         355
  C:758AH         LINE#         356
  C:758DH         LINE#         357
  C:7593H         LINE#         358
  C:7593H         LINE#         359
  C:75A3H         LINE#         360
  C:75A6H         LINE#         367
  C:75A8H         LINE#         368
  C:75A8H         LINE#         369
  C:75A8H         LINE#         370
  C:75A8H         LINE#         371
  C:75ADH         LINE#         372
  C:75B2H         LINE#         373
  C:75B6H         LINE#         374
  C:75B9H         LINE#         375
  C:75BCH         LINE#         376
  C:75BFH         LINE#         377
  C:75BFH         LINE#         378
  C:75CFH         LINE#         379
  C:75D2H         LINE#         386
  C:75D4H         LINE#         387
  C:75D4H         LINE#         388
  C:75D4H         LINE#         389
  C:75D4H         LINE#         391
  C:75D4H         LINE#         392
  C:75D9H         LINE#         393
  C:75DEH         LINE#         394
  C:75E2H         LINE#         395
  C:75E5H         LINE#         396
  C:75E8H         LINE#         397
  C:75EBH         LINE#         398
  C:75EBH         LINE#         399
BL51 BANKED LINKER/LOCATER V6.22                                                      05/27/2019  15:40:45  PAGE 93


  C:75FBH         LINE#         400
  C:75FEH         LINE#         407
  C:7600H         LINE#         408
  C:7605H         LINE#         409
  C:760AH         LINE#         410
  C:760EH         LINE#         411
  C:7611H         LINE#         412
  C:7614H         LINE#         413
  C:7617H         LINE#         414
  C:7617H         LINE#         415
  C:7627H         LINE#         416
  C:762AH         LINE#         423
  C:762CH         LINE#         424
  C:762CH         LINE#         425
  -------         ENDPROC       _BROADCAST
  -------         PROC          _BROADCAST_TEMP
  X:0056H         SYMBOL        pbuff
  -------         DO            
  X:0059H         SYMBOL        symbol
  D:0006H         SYMBOL        dec_temper
  -------         ENDDO         
  C:6E10H         LINE#         429
  C:6E16H         LINE#         430
  C:6E16H         LINE#         432
  C:6E1BH         LINE#         434
  C:6E20H         LINE#         435
  C:6E22H         LINE#         436
  C:6E22H         LINE#         437
  C:6E25H         LINE#         438
  C:6E28H         LINE#         439
  C:6E2BH         LINE#         440
  C:6E2BH         LINE#         441
  C:6E3BH         LINE#         442
  C:6E3EH         LINE#         449
  C:6E40H         LINE#         451
  C:6E4DH         LINE#         452
  C:6E4DH         LINE#         453
  C:6E53H         LINE#         454
  C:6E5EH         LINE#         456
  C:6E73H         LINE#         457
  C:6E8AH         LINE#         458
  C:6E93H         LINE#         459
  C:6E93H         LINE#         460
  C:6E9EH         LINE#         461
  C:6EABH         LINE#         462
  C:6EABH         LINE#         463
  C:6EABH         LINE#         465
  C:6EB3H         LINE#         466
  C:6EB3H         LINE#         467
  C:6EB8H         LINE#         468
  C:6EBDH         LINE#         469
  C:6EBFH         LINE#         470
  C:6EC2H         LINE#         471
  C:6EC5H         LINE#         472
  C:6EC8H         LINE#         473
  C:6EC8H         LINE#         474
  C:6ED8H         LINE#         475
BL51 BANKED LINKER/LOCATER V6.22                                                      05/27/2019  15:40:45  PAGE 94


  C:6EDBH         LINE#         482
  C:6EDDH         LINE#         483
  C:6EDDH         LINE#         485
  C:6EECH         LINE#         488
  C:6EF1H         LINE#         489
  C:6EF6H         LINE#         490
  C:6EF8H         LINE#         491
  C:6EFBH         LINE#         492
  C:6EFEH         LINE#         493
  C:6F01H         LINE#         494
  C:6F01H         LINE#         495
  C:6F11H         LINE#         496
  C:6F14H         LINE#         503
  C:6F16H         LINE#         507
  C:6F25H         LINE#         508
  C:6F34H         LINE#         509
  C:6F3AH         LINE#         510
  C:6F47H         LINE#         511
  C:6F53H         LINE#         514
  C:6F58H         LINE#         515
  C:6F5DH         LINE#         516
  C:6F5FH         LINE#         517
  C:6F62H         LINE#         518
  C:6F65H         LINE#         519
  C:6F68H         LINE#         520
  C:6F68H         LINE#         521
  C:6F78H         LINE#         522
  C:6F7BH         LINE#         529
  C:6F7DH         LINE#         531
  C:6F91H         LINE#         532
  C:6F91H         LINE#         533
  C:6F96H         LINE#         534
  C:6F9BH         LINE#         535
  C:6F9DH         LINE#         536
  C:6FA0H         LINE#         537
  C:6FA3H         LINE#         538
  C:6FA6H         LINE#         539
  C:6FA6H         LINE#         540
  C:6FB6H         LINE#         541
  C:6FB9H         LINE#         548
  C:6FBBH         LINE#         549
  C:6FBBH         LINE#         550
  C:6FCFH         LINE#         551
  C:6FCFH         LINE#         552
  C:6FD4H         LINE#         553
  C:6FD9H         LINE#         554
  C:6FDBH         LINE#         555
  C:6FDEH         LINE#         557
  C:6FE1H         LINE#         558
  C:6FE4H         LINE#         559
  C:6FE4H         LINE#         560
  C:6FF4H         LINE#         561
  C:6FF7H         LINE#         568
  C:6FF9H         LINE#         569
  C:6FF9H         LINE#         570
  -------         ENDPROC       _BROADCAST_TEMP
  -------         PROC          CHECK_NOW_TIME
BL51 BANKED LINKER/LOCATER V6.22                                                      05/27/2019  15:40:45  PAGE 95


  X:005CH         SYMBOL        str_time
  -------         DO            
  D:0006H         SYMBOL        tmp_hour
  D:0004H         SYMBOL        shiwei
  D:0003H         SYMBOL        gewei
  -------         ENDDO         
  C:9396H         LINE#         572
  C:9396H         LINE#         573
  C:9396H         LINE#         577
  C:939CH         LINE#         578
  C:93A2H         LINE#         579
  C:93A9H         LINE#         580
  C:93AEH         LINE#         582
  C:93B3H         LINE#         583
  C:93B5H         LINE#         584
  C:93B8H         LINE#         585
  C:93BBH         LINE#         586
  C:93BEH         LINE#         587
  C:93BEH         LINE#         588
  C:93CEH         LINE#         589
  C:93D1H         LINE#         590
  C:93D3H         LINE#         592
  -------         ENDPROC       CHECK_NOW_TIME
  -------         PROC          BROADCAST_MORNING
  X:0056H         SYMBOL        str_time
  C:2073H         LINE#         593
  C:2073H         LINE#         594
  C:2073H         LINE#         596
  C:2078H         LINE#         597
  C:207DH         LINE#         598
  C:207FH         LINE#         599
  C:2082H         LINE#         601
  C:2085H         LINE#         602
  C:2088H         LINE#         603
  C:2088H         LINE#         604
  C:2098H         LINE#         605
  C:209BH         LINE#         606
  C:209DH         LINE#         608
  C:20A2H         LINE#         609
  C:20A7H         LINE#         610
  C:20A9H         LINE#         611
  C:20ACH         LINE#         612
  C:20AFH         LINE#         613
  C:20B2H         LINE#         614
  C:20B2H         LINE#         615
  C:20C2H         LINE#         616
  C:20C5H         LINE#         617
  C:20C7H         LINE#         619
  C:20CCH         LINE#         620
  C:20CEH         LINE#         621
  C:20CEH         LINE#         622
  C:20D1H         LINE#         623
  C:20D4H         LINE#         624
  C:20D7H         LINE#         625
  C:20D7H         LINE#         626
  C:20E7H         LINE#         627
  C:20EAH         LINE#         628
BL51 BANKED LINKER/LOCATER V6.22                                                      05/27/2019  15:40:45  PAGE 96


  C:20ECH         LINE#         630
  C:20F6H         LINE#         633
  C:20FBH         LINE#         634
  C:2100H         LINE#         635
  C:2102H         LINE#         636
  C:2105H         LINE#         637
  C:2108H         LINE#         638
  C:210BH         LINE#         639
  C:210BH         LINE#         640
  C:211BH         LINE#         641
  C:211EH         LINE#         642
  C:2120H         LINE#         644
  C:2126H         LINE#         645
  C:212BH         LINE#         646
  C:2130H         LINE#         647
  C:2132H         LINE#         648
  C:2135H         LINE#         649
  C:2138H         LINE#         650
  C:213BH         LINE#         651
  C:213BH         LINE#         652
  C:214BH         LINE#         653
  C:214EH         LINE#         654
  C:2150H         LINE#         655
  C:2156H         LINE#         657
  C:215BH         LINE#         658
  C:2160H         LINE#         659
  C:2162H         LINE#         660
  C:2165H         LINE#         661
  C:2168H         LINE#         662
  C:216BH         LINE#         663
  C:216BH         LINE#         664
  C:217BH         LINE#         665
  C:217EH         LINE#         666
  C:2180H         LINE#         669
  C:2185H         LINE#         670
  C:218AH         LINE#         671
  C:218CH         LINE#         672
  C:218FH         LINE#         673
  C:2192H         LINE#         674
  C:2195H         LINE#         675
  C:2195H         LINE#         676
  C:21A5H         LINE#         677
  C:21A8H         LINE#         678
  C:21AAH         LINE#         681
  C:21C3H         LINE#         682
  C:21C3H         LINE#         683
  C:21DEH         LINE#         684
  C:21E0H         LINE#         686
  C:21E0H         LINE#         687
  C:21E5H         LINE#         688
  C:21EAH         LINE#         689
  C:21ECH         LINE#         690
  C:21EFH         LINE#         691
  C:21F2H         LINE#         692
  C:21F5H         LINE#         693
  C:21F5H         LINE#         694
  C:2205H         LINE#         695
BL51 BANKED LINKER/LOCATER V6.22                                                      05/27/2019  15:40:45  PAGE 97


  C:2208H         LINE#         696
  C:220AH         LINE#         697
  C:220AH         LINE#         700
  C:220FH         LINE#         701
  C:2214H         LINE#         702
  C:2216H         LINE#         703
  C:2219H         LINE#         704
  C:221CH         LINE#         705
  C:221FH         LINE#         706
  C:221FH         LINE#         707
  C:222FH         LINE#         708
  C:2232H         LINE#         709
  C:2234H         LINE#         713
  C:2237H         LINE#         714
  C:2237H         LINE#         715
  C:223CH         LINE#         716
  C:2241H         LINE#         717
  C:2243H         LINE#         718
  C:2246H         LINE#         719
  C:2249H         LINE#         720
  C:224CH         LINE#         721
  C:224CH         LINE#         722
  C:225CH         LINE#         723
  C:225FH         LINE#         724
  C:2261H         LINE#         725
  C:2261H         LINE#         726
  C:2269H         LINE#         727
  C:2269H         LINE#         728
  C:226EH         LINE#         729
  C:2273H         LINE#         730
  C:2275H         LINE#         731
  C:2278H         LINE#         732
  C:227BH         LINE#         733
  C:2281H         LINE#         734
  C:2281H         LINE#         735
  C:2291H         LINE#         736
  C:2294H         LINE#         737
  C:2296H         LINE#         738
  C:2296H         LINE#         739
  C:229EH         LINE#         740
  C:229EH         LINE#         741
  C:22A3H         LINE#         742
  C:22A8H         LINE#         743
  C:22AAH         LINE#         744
  C:22ADH         LINE#         745
  C:22B0H         LINE#         746
  C:22B6H         LINE#         747
  C:22B6H         LINE#         748
  C:22C6H         LINE#         749
  C:22C9H         LINE#         750
  C:22CBH         LINE#         751
  C:22CBH         LINE#         752
  C:22D3H         LINE#         753
  C:22D3H         LINE#         754
  C:22D8H         LINE#         755
  C:22DDH         LINE#         756
  C:22DFH         LINE#         757
BL51 BANKED LINKER/LOCATER V6.22                                                      05/27/2019  15:40:45  PAGE 98


  C:22E2H         LINE#         758
  C:22E5H         LINE#         759
  C:22E8H         LINE#         760
  C:22E8H         LINE#         761
  C:22F8H         LINE#         762
  C:22FBH         LINE#         763
  C:22FDH         LINE#         764
  C:22FDH         LINE#         765
  C:2305H         LINE#         766
  C:2305H         LINE#         767
  C:2305H         LINE#         768
  C:2305H         LINE#         769
  C:2305H         LINE#         770
  C:2308H         LINE#         771
  C:230BH         LINE#         772
  C:230EH         LINE#         773
  C:230EH         LINE#         774
  C:231EH         LINE#         775
  C:2321H         LINE#         776
  C:2323H         LINE#         777
  C:2323H         LINE#         779
  C:2323H         LINE#         780
  C:2328H         LINE#         781
  C:232DH         LINE#         782
  C:2331H         LINE#         783
  C:2334H         LINE#         784
  C:2337H         LINE#         785
  C:233AH         LINE#         786
  C:233AH         LINE#         787
  C:234AH         LINE#         788
  C:234DH         LINE#         789
  C:234FH         LINE#         790
  C:234FH         LINE#         792
  C:2354H         LINE#         793
  C:2359H         LINE#         794
  C:235BH         LINE#         795
  C:235EH         LINE#         796
  C:2361H         LINE#         797
  C:2364H         LINE#         798
  C:2364H         LINE#         799
  C:2374H         LINE#         800
  C:2377H         LINE#         801
  C:2379H         LINE#         803
  C:2382H         LINE#         804
  C:2382H         LINE#         806
  C:2387H         LINE#         807
  C:238CH         LINE#         808
  C:238EH         LINE#         809
  C:2391H         LINE#         810
  C:2394H         LINE#         811
  C:2397H         LINE#         812
  C:2397H         LINE#         813
  C:23A7H         LINE#         814
  C:23AAH         LINE#         815
  C:23ACH         LINE#         817
  C:23B4H         LINE#         818
  C:23B4H         LINE#         819
BL51 BANKED LINKER/LOCATER V6.22                                                      05/27/2019  15:40:45  PAGE 99


  C:23B4H         LINE#         820
  C:23B4H         LINE#         821
  C:23B4H         LINE#         822
  C:23B7H         LINE#         823
  C:23BAH         LINE#         824
  C:23BDH         LINE#         825
  C:23BDH         LINE#         826
  C:23CDH         LINE#         827
  C:23D0H         LINE#         828
  C:23D2H         LINE#         829
  C:23D2H         LINE#         830
  C:23D2H         LINE#         831
  C:23D7H         LINE#         832
  C:23DCH         LINE#         833
  C:23E0H         LINE#         834
  C:23E3H         LINE#         835
  C:23E6H         LINE#         836
  C:23E9H         LINE#         837
  C:23E9H         LINE#         838
  C:23F9H         LINE#         839
  C:23FCH         LINE#         840
  C:23FEH         LINE#         841
  C:23FEH         LINE#         842
  C:23FEH         LINE#         844
  C:23FEH         LINE#         845
  C:2404H         LINE#         846
  C:2404H         LINE#         847
  C:241AH         LINE#         849
  C:2423H         LINE#         850
  C:2423H         LINE#         851
  C:2428H         LINE#         852
  C:242DH         LINE#         853
  C:242FH         LINE#         854
  C:2432H         LINE#         855
  C:2435H         LINE#         856
  C:2438H         LINE#         857
  C:2438H         LINE#         858
  C:2448H         LINE#         859
  C:244BH         LINE#         860
  C:244DH         LINE#         861
  C:252AH         LINE#         862
  C:252AH         LINE#         863
  C:252AH         LINE#         864
  C:252FH         LINE#         865
  C:2534H         LINE#         866
  C:2536H         LINE#         867
  C:253CH         LINE#         868
  C:2542H         LINE#         869
  C:2542H         LINE#         870
  C:2552H         LINE#         871
  C:2555H         LINE#         872
  C:2557H         LINE#         873
  C:2557H         LINE#         874
  C:2557H         LINE#         875
  C:255CH         LINE#         876
  C:2561H         LINE#         877
  C:2563H         LINE#         878
BL51 BANKED LINKER/LOCATER V6.22                                                      05/27/2019  15:40:45  PAGE 100


  C:2569H         LINE#         879
  C:256FH         LINE#         880
  C:256FH         LINE#         881
  C:257FH         LINE#         882
  C:2582H         LINE#         883
  C:2584H         LINE#         884
  C:2584H         LINE#         885
  C:2584H         LINE#         886
  C:2589H         LINE#         887
  C:258EH         LINE#         888
  C:2590H         LINE#         889
  C:2596H         LINE#         890
  C:259CH         LINE#         891
  C:259CH         LINE#         892
  C:25ACH         LINE#         893
  C:25AFH         LINE#         894
  C:25B1H         LINE#         895
  C:25B1H         LINE#         896
  C:25B1H         LINE#         897
  C:25B6H         LINE#         898
  C:25BBH         LINE#         899
  C:25BDH         LINE#         900
  C:25C3H         LINE#         901
  C:25C9H         LINE#         902
  C:25C9H         LINE#         903
  C:25D9H         LINE#         904
  C:25DCH         LINE#         905
  C:25DEH         LINE#         906
  C:25DEH         LINE#         907
  C:25DEH         LINE#         908
  C:25E3H         LINE#         909
  C:25E8H         LINE#         910
  C:25EAH         LINE#         911
  C:25F0H         LINE#         912
  C:25F6H         LINE#         913
  C:25F6H         LINE#         914
  C:2606H         LINE#         915
  C:2609H         LINE#         916
  C:260BH         LINE#         917
  C:260BH         LINE#         918
  C:260BH         LINE#         919
  C:2610H         LINE#         920
  C:2615H         LINE#         921
  C:2617H         LINE#         922
  C:261DH         LINE#         923
  C:2623H         LINE#         924
  C:2623H         LINE#         925
  C:2633H         LINE#         926
  C:2636H         LINE#         927
  C:2638H         LINE#         928
  C:2638H         LINE#         929
  C:2638H         LINE#         930
  C:263DH         LINE#         931
  C:2642H         LINE#         932
  C:2644H         LINE#         933
  C:264AH         LINE#         934
  C:2650H         LINE#         935
BL51 BANKED LINKER/LOCATER V6.22                                                      05/27/2019  15:40:45  PAGE 101


  C:2650H         LINE#         936
  C:2660H         LINE#         937
  C:2663H         LINE#         938
  C:2665H         LINE#         939
  C:2665H         LINE#         940
  C:2665H         LINE#         941
  C:266AH         LINE#         942
  C:266FH         LINE#         943
  C:2671H         LINE#         944
  C:2677H         LINE#         945
  C:267DH         LINE#         946
  C:267DH         LINE#         947
  C:268DH         LINE#         948
  C:2690H         LINE#         949
  C:2692H         LINE#         950
  C:2692H         LINE#         951
  C:2692H         LINE#         952
  C:2697H         LINE#         953
  C:2699H         LINE#         954
  C:2699H         LINE#         955
  C:269FH         LINE#         956
  C:26A5H         LINE#         957
  C:26A5H         LINE#         958
  C:26B5H         LINE#         959
  C:26B8H         LINE#         960
  C:26BAH         LINE#         961
  C:26BAH         LINE#         962
  C:26BAH         LINE#         963
  C:26BFH         LINE#         964
  C:26C4H         LINE#         965
  C:26C6H         LINE#         966
  C:26CCH         LINE#         967
  C:26D2H         LINE#         968
  C:26D2H         LINE#         969
  C:26E2H         LINE#         970
  C:26E5H         LINE#         971
  C:26E7H         LINE#         972
  C:26E7H         LINE#         973
  C:26E7H         LINE#         974
  C:26ECH         LINE#         975
  C:26F1H         LINE#         976
  C:26F3H         LINE#         977
  C:26F9H         LINE#         978
  C:26FFH         LINE#         979
  C:26FFH         LINE#         980
  C:270FH         LINE#         981
  C:2712H         LINE#         982
  C:2714H         LINE#         983
  C:2714H         LINE#         984
  C:2714H         LINE#         985
  C:2719H         LINE#         986
  C:271EH         LINE#         987
  C:2720H         LINE#         988
  C:2726H         LINE#         989
  C:272CH         LINE#         990
  C:272CH         LINE#         991
  C:273CH         LINE#         992
BL51 BANKED LINKER/LOCATER V6.22                                                      05/27/2019  15:40:45  PAGE 102


  C:273FH         LINE#         993
  C:2741H         LINE#         994
  C:2741H         LINE#         995
  C:2741H         LINE#         996
  C:2746H         LINE#         997
  C:274BH         LINE#         998
  C:274DH         LINE#         999
  C:2753H         LINE#         1000
  C:2759H         LINE#         1001
  C:2759H         LINE#         1002
  C:2769H         LINE#         1003
  C:276CH         LINE#         1004
  C:276EH         LINE#         1005
  C:276EH         LINE#         1006
  C:276EH         LINE#         1007
  C:2773H         LINE#         1008
  C:2778H         LINE#         1009
  C:277AH         LINE#         1010
  C:2780H         LINE#         1011
  C:2786H         LINE#         1012
  C:2786H         LINE#         1013
  C:2796H         LINE#         1014
  C:2799H         LINE#         1015
  C:279BH         LINE#         1016
  C:279BH         LINE#         1017
  C:279BH         LINE#         1018
  C:27A0H         LINE#         1019
  C:27A5H         LINE#         1020
  C:27A7H         LINE#         1021
  C:27ADH         LINE#         1022
  C:27B3H         LINE#         1023
  C:27B3H         LINE#         1024
  C:27C3H         LINE#         1025
  C:27C6H         LINE#         1026
  C:27C8H         LINE#         1027
  C:27C8H         LINE#         1028
  C:27C8H         LINE#         1029
  C:27CDH         LINE#         1030
  C:27D2H         LINE#         1031
  C:27D4H         LINE#         1032
  C:27DAH         LINE#         1033
  C:27E0H         LINE#         1034
  C:27E0H         LINE#         1035
  C:27F0H         LINE#         1036
  C:27F3H         LINE#         1037
  C:27F5H         LINE#         1038
  C:27F5H         LINE#         1039
  C:27F5H         LINE#         1040
  C:27FAH         LINE#         1041
  C:27FFH         LINE#         1042
  C:2801H         LINE#         1043
  C:2807H         LINE#         1044
  C:280DH         LINE#         1045
  C:280DH         LINE#         1046
  C:281DH         LINE#         1047
  C:2820H         LINE#         1048
  C:2822H         LINE#         1049
BL51 BANKED LINKER/LOCATER V6.22                                                      05/27/2019  15:40:45  PAGE 103


  C:2822H         LINE#         1050
  C:2822H         LINE#         1051
  C:2827H         LINE#         1052
  C:282CH         LINE#         1053
  C:282EH         LINE#         1054
  C:2834H         LINE#         1055
  C:283AH         LINE#         1056
  C:283AH         LINE#         1057
  C:284AH         LINE#         1058
  C:284DH         LINE#         1059
  C:284FH         LINE#         1060
  C:284FH         LINE#         1061
  C:284FH         LINE#         1062
  C:2854H         LINE#         1063
  C:2856H         LINE#         1064
  C:2856H         LINE#         1065
  C:285CH         LINE#         1066
  C:2862H         LINE#         1067
  C:2862H         LINE#         1068
  C:2872H         LINE#         1069
  C:2875H         LINE#         1070
  C:2877H         LINE#         1071
  C:2877H         LINE#         1072
  C:2877H         LINE#         1073
  C:287CH         LINE#         1074
  C:2881H         LINE#         1075
  C:2883H         LINE#         1076
  C:2889H         LINE#         1077
  C:288FH         LINE#         1078
  C:288FH         LINE#         1079
  C:289FH         LINE#         1080
  C:28A2H         LINE#         1081
  C:28A4H         LINE#         1082
  C:28A4H         LINE#         1083
  C:28A4H         LINE#         1084
  C:28A9H         LINE#         1085
  C:28AEH         LINE#         1086
  C:28B0H         LINE#         1087
  C:28B6H         LINE#         1088
  C:28BCH         LINE#         1089
  C:28BCH         LINE#         1090
  C:28CCH         LINE#         1091
  C:28CFH         LINE#         1092
  C:28D1H         LINE#         1093
  C:28D1H         LINE#         1094
  C:28D1H         LINE#         1095
  C:28D6H         LINE#         1096
  C:28DBH         LINE#         1097
  C:28DDH         LINE#         1098
  C:28E3H         LINE#         1099
  C:28E9H         LINE#         1100
  C:28E9H         LINE#         1101
  C:28F9H         LINE#         1102
  C:28FCH         LINE#         1103
  C:28FEH         LINE#         1104
  C:28FEH         LINE#         1105
  C:28FEH         LINE#         1106
BL51 BANKED LINKER/LOCATER V6.22                                                      05/27/2019  15:40:45  PAGE 104


  C:2903H         LINE#         1107
  C:2908H         LINE#         1108
  C:290AH         LINE#         1109
  C:2910H         LINE#         1110
  C:2916H         LINE#         1111
  C:2916H         LINE#         1112
  C:2926H         LINE#         1113
  C:2929H         LINE#         1114
  C:292BH         LINE#         1115
  C:292BH         LINE#         1116
  C:292BH         LINE#         1117
  C:2930H         LINE#         1118
  C:2935H         LINE#         1119
  C:2937H         LINE#         1120
  C:293DH         LINE#         1121
  C:2943H         LINE#         1122
  C:2943H         LINE#         1123
  C:2953H         LINE#         1124
  C:2956H         LINE#         1125
  C:2958H         LINE#         1126
  C:2958H         LINE#         1127
  C:2958H         LINE#         1128
  C:295DH         LINE#         1129
  C:2962H         LINE#         1130
  C:2964H         LINE#         1131
  C:296AH         LINE#         1132
  C:2970H         LINE#         1133
  C:2970H         LINE#         1134
  C:2980H         LINE#         1135
  C:2983H         LINE#         1136
  C:2985H         LINE#         1137
  C:2985H         LINE#         1138
  C:2985H         LINE#         1139
  C:298AH         LINE#         1140
  C:298FH         LINE#         1141
  C:2991H         LINE#         1142
  C:2997H         LINE#         1143
  C:299DH         LINE#         1144
  C:299DH         LINE#         1145
  C:29ADH         LINE#         1146
  C:29B0H         LINE#         1147
  C:29B2H         LINE#         1148
  C:29B2H         LINE#         1149
  C:29B2H         LINE#         1150
  C:29B7H         LINE#         1151
  C:29BCH         LINE#         1152
  C:29BEH         LINE#         1153
  C:29C4H         LINE#         1154
  C:29CAH         LINE#         1155
  C:29CAH         LINE#         1156
  C:29DAH         LINE#         1157
  C:29DDH         LINE#         1158
  C:29DFH         LINE#         1159
  C:29DFH         LINE#         1160
  C:29DFH         LINE#         1161
  C:29E4H         LINE#         1162
  C:29E9H         LINE#         1163
BL51 BANKED LINKER/LOCATER V6.22                                                      05/27/2019  15:40:45  PAGE 105


  C:29EBH         LINE#         1164
  C:29F1H         LINE#         1165
  C:29F7H         LINE#         1166
  C:29F7H         LINE#         1167
  C:2A07H         LINE#         1168
  C:2A0AH         LINE#         1169
  C:2A0CH         LINE#         1170
  C:2A0CH         LINE#         1171
  C:2A0CH         LINE#         1172
  C:2A11H         LINE#         1173
  C:2A13H         LINE#         1174
  C:2A13H         LINE#         1175
  C:2A19H         LINE#         1176
  C:2A1FH         LINE#         1177
  C:2A1FH         LINE#         1178
  C:2A2FH         LINE#         1179
  C:2A32H         LINE#         1180
  C:2A34H         LINE#         1181
  C:2A34H         LINE#         1182
  C:2A34H         LINE#         1183
  C:2A39H         LINE#         1184
  C:2A3EH         LINE#         1185
  C:2A40H         LINE#         1186
  C:2A46H         LINE#         1187
  C:2A4CH         LINE#         1188
  C:2A4CH         LINE#         1189
  C:2A5CH         LINE#         1190
  C:2A5FH         LINE#         1191
  C:2A61H         LINE#         1192
  C:2A61H         LINE#         1193
  C:2A61H         LINE#         1194
  C:2A66H         LINE#         1195
  C:2A6BH         LINE#         1196
  C:2A6DH         LINE#         1197
  C:2A73H         LINE#         1198
  C:2A79H         LINE#         1199
  C:2A79H         LINE#         1200
  C:2A89H         LINE#         1201
  C:2A8CH         LINE#         1202
  C:2A8EH         LINE#         1203
  C:2A8EH         LINE#         1204
  C:2A8EH         LINE#         1205
  C:2A93H         LINE#         1206
  C:2A98H         LINE#         1207
  C:2A9AH         LINE#         1208
  C:2AA0H         LINE#         1209
  C:2AA6H         LINE#         1210
  C:2AA6H         LINE#         1211
  C:2AB6H         LINE#         1212
  C:2AB9H         LINE#         1213
  C:2ABBH         LINE#         1214
  C:2ABBH         LINE#         1215
  C:2ABBH         LINE#         1216
  C:2AC0H         LINE#         1217
  C:2AC5H         LINE#         1218
  C:2AC7H         LINE#         1219
  C:2ACDH         LINE#         1220
BL51 BANKED LINKER/LOCATER V6.22                                                      05/27/2019  15:40:45  PAGE 106


  C:2AD3H         LINE#         1221
  C:2AD3H         LINE#         1222
  C:2AE3H         LINE#         1223
  C:2AE6H         LINE#         1224
  C:2AE8H         LINE#         1225
  C:2AE8H         LINE#         1226
  C:2AE8H         LINE#         1227
  C:2AEDH         LINE#         1228
  C:2AF2H         LINE#         1229
  C:2AF4H         LINE#         1230
  C:2AFAH         LINE#         1231
  C:2B00H         LINE#         1232
  C:2B00H         LINE#         1233
  C:2B10H         LINE#         1234
  C:2B13H         LINE#         1235
  C:2B15H         LINE#         1236
  C:2B15H         LINE#         1237
  C:2B15H         LINE#         1238
  C:2B1AH         LINE#         1239
  C:2B1FH         LINE#         1240
  C:2B21H         LINE#         1241
  C:2B27H         LINE#         1242
  C:2B2DH         LINE#         1243
  C:2B2DH         LINE#         1244
  C:2B3DH         LINE#         1245
  C:2B40H         LINE#         1246
  C:2B42H         LINE#         1247
  C:2B42H         LINE#         1248
  C:2B42H         LINE#         1249
  C:2B47H         LINE#         1250
  C:2B4CH         LINE#         1251
  C:2B4EH         LINE#         1252
  C:2B54H         LINE#         1253
  C:2B5AH         LINE#         1254
  C:2B5AH         LINE#         1255
  C:2B6AH         LINE#         1256
  C:2B6DH         LINE#         1257
  C:2B6FH         LINE#         1258
  C:2B6FH         LINE#         1259
  C:2B6FH         LINE#         1260
  C:2B74H         LINE#         1261
  C:2B79H         LINE#         1262
  C:2B7BH         LINE#         1263
  C:2B81H         LINE#         1264
  C:2B87H         LINE#         1265
  C:2B87H         LINE#         1266
  C:2B97H         LINE#         1267
  C:2B9AH         LINE#         1268
  C:2B9CH         LINE#         1269
  C:2B9CH         LINE#         1270
  C:2B9CH         LINE#         1271
  C:2BA1H         LINE#         1272
  C:2BA6H         LINE#         1273
  C:2BA8H         LINE#         1274
  C:2BAEH         LINE#         1275
  C:2BB4H         LINE#         1276
  C:2BB4H         LINE#         1277
BL51 BANKED LINKER/LOCATER V6.22                                                      05/27/2019  15:40:45  PAGE 107


  C:2BC4H         LINE#         1278
  C:2BC7H         LINE#         1279
  C:2BC9H         LINE#         1280
  C:2BC9H         LINE#         1281
  C:2BC9H         LINE#         1282
  C:2BCEH         LINE#         1283
  C:2BD3H         LINE#         1284
  C:2BD5H         LINE#         1285
  C:2BD5H         LINE#         1286
  C:2BDBH         LINE#         1287
  C:2BE1H         LINE#         1288
  C:2BE1H         LINE#         1289
  C:2BF1H         LINE#         1290
  C:2BF4H         LINE#         1291
  C:2BF6H         LINE#         1292
  C:2BF6H         LINE#         1293
  C:2BF6H         LINE#         1294
  C:2BFBH         LINE#         1295
  C:2C00H         LINE#         1296
  C:2C05H         LINE#         1297
  C:2C07H         LINE#         1298
  C:2C0DH         LINE#         1299
  C:2C13H         LINE#         1300
  C:2C13H         LINE#         1301
  C:2C23H         LINE#         1302
  C:2C26H         LINE#         1303
  C:2C28H         LINE#         1304
  C:2C28H         LINE#         1305
  C:2C28H         LINE#         1306
  C:2C2DH         LINE#         1307
  C:2C32H         LINE#         1308
  C:2C37H         LINE#         1309
  C:2C39H         LINE#         1310
  C:2C3FH         LINE#         1311
  C:2C45H         LINE#         1312
  C:2C45H         LINE#         1313
  C:2C55H         LINE#         1314
  C:2C58H         LINE#         1315
  C:2C5AH         LINE#         1316
  C:2C5AH         LINE#         1317
  C:2C5AH         LINE#         1318
  C:2C5FH         LINE#         1319
  C:2C64H         LINE#         1320
  C:2C69H         LINE#         1321
  C:2C6BH         LINE#         1322
  C:2C71H         LINE#         1323
  C:2C77H         LINE#         1324
  C:2C77H         LINE#         1325
  C:2C87H         LINE#         1326
  C:2C8AH         LINE#         1327
  C:2C8CH         LINE#         1328
  C:2C8CH         LINE#         1329
  C:2C8CH         LINE#         1330
  C:2C91H         LINE#         1331
  C:2C96H         LINE#         1332
  C:2C9BH         LINE#         1333
  C:2C9DH         LINE#         1334
BL51 BANKED LINKER/LOCATER V6.22                                                      05/27/2019  15:40:45  PAGE 108


  C:2CA3H         LINE#         1335
  C:2CA9H         LINE#         1336
  C:2CA9H         LINE#         1337
  C:2CB9H         LINE#         1338
  C:2CBCH         LINE#         1339
  C:2CBEH         LINE#         1340
  C:2CBEH         LINE#         1341
  C:2CBEH         LINE#         1342
  C:2CC3H         LINE#         1343
  C:2CC8H         LINE#         1344
  C:2CCDH         LINE#         1345
  C:2CCFH         LINE#         1346
  C:2CD5H         LINE#         1347
  C:2CDBH         LINE#         1348
  C:2CDBH         LINE#         1349
  C:2CEBH         LINE#         1350
  C:2CEEH         LINE#         1351
  C:2CF0H         LINE#         1352
  C:2CF0H         LINE#         1353
  C:2CF0H         LINE#         1354
  C:2CF5H         LINE#         1355
  C:2CFAH         LINE#         1356
  C:2CFFH         LINE#         1357
  C:2D01H         LINE#         1358
  C:2D07H         LINE#         1359
  C:2D0DH         LINE#         1360
  C:2D0DH         LINE#         1361
  C:2D1DH         LINE#         1362
  C:2D20H         LINE#         1363
  C:2D22H         LINE#         1364
  C:2D22H         LINE#         1365
  C:2D22H         LINE#         1366
  C:2D27H         LINE#         1367
  C:2D2CH         LINE#         1368
  C:2D31H         LINE#         1369
  C:2D33H         LINE#         1370
  C:2D39H         LINE#         1371
  C:2D3FH         LINE#         1372
  C:2D3FH         LINE#         1373
  C:2D4FH         LINE#         1374
  C:2D52H         LINE#         1375
  C:2D54H         LINE#         1376
  C:2D54H         LINE#         1377
  C:2D54H         LINE#         1378
  C:2D59H         LINE#         1379
  C:2D5EH         LINE#         1380
  C:2D63H         LINE#         1381
  C:2D65H         LINE#         1382
  C:2D6BH         LINE#         1383
  C:2D71H         LINE#         1384
  C:2D71H         LINE#         1385
  C:2D81H         LINE#         1386
  C:2D84H         LINE#         1387
  C:2D86H         LINE#         1388
  C:2D86H         LINE#         1389
  C:2D86H         LINE#         1390
  C:2D8BH         LINE#         1391
BL51 BANKED LINKER/LOCATER V6.22                                                      05/27/2019  15:40:45  PAGE 109


  C:2D90H         LINE#         1392
  C:2D95H         LINE#         1393
  C:2D97H         LINE#         1394
  C:2D9DH         LINE#         1395
  C:2DA3H         LINE#         1396
  C:2DA3H         LINE#         1397
  C:2DB3H         LINE#         1398
  C:2DB6H         LINE#         1399
  C:2DB8H         LINE#         1400
  C:2DB8H         LINE#         1401
  C:2DB8H         LINE#         1402
  C:2DBDH         LINE#         1403
  C:2DC2H         LINE#         1404
  C:2DC4H         LINE#         1405
  C:2DC4H         LINE#         1406
  C:2DCAH         LINE#         1407
  C:2DD0H         LINE#         1408
  C:2DD0H         LINE#         1409
  C:2DE0H         LINE#         1410
  C:2DE3H         LINE#         1411
  C:2DE5H         LINE#         1412
  C:2DE5H         LINE#         1413
  C:2DE5H         LINE#         1414
  C:2DEAH         LINE#         1415
  C:2DEFH         LINE#         1416
  C:2DF4H         LINE#         1417
  C:2DF6H         LINE#         1418
  C:2DFCH         LINE#         1419
  C:2E02H         LINE#         1420
  C:2E02H         LINE#         1421
  C:2E12H         LINE#         1422
  C:2E15H         LINE#         1423
  C:2E17H         LINE#         1424
  C:2E17H         LINE#         1425
  C:2E17H         LINE#         1426
  C:2E1CH         LINE#         1427
  C:2E21H         LINE#         1428
  C:2E26H         LINE#         1429
  C:2E28H         LINE#         1430
  C:2E2EH         LINE#         1431
  C:2E34H         LINE#         1432
  C:2E34H         LINE#         1433
  C:2E44H         LINE#         1434
  C:2E47H         LINE#         1435
  C:2E49H         LINE#         1436
  C:2E49H         LINE#         1437
  C:2E49H         LINE#         1438
  C:2E4EH         LINE#         1439
  C:2E53H         LINE#         1440
  C:2E58H         LINE#         1441
  C:2E5AH         LINE#         1442
  C:2E60H         LINE#         1443
  C:2E66H         LINE#         1444
  C:2E66H         LINE#         1445
  C:2E76H         LINE#         1446
  C:2E79H         LINE#         1447
  C:2E7BH         LINE#         1448
BL51 BANKED LINKER/LOCATER V6.22                                                      05/27/2019  15:40:45  PAGE 110


  C:2E7BH         LINE#         1449
  C:2E7BH         LINE#         1450
  C:2E80H         LINE#         1451
  C:2E85H         LINE#         1452
  C:2E8AH         LINE#         1453
  C:2E8CH         LINE#         1454
  C:2E92H         LINE#         1455
  C:2E98H         LINE#         1456
  C:2E98H         LINE#         1457
  C:2EA8H         LINE#         1458
  C:2EABH         LINE#         1459
  C:2EADH         LINE#         1460
  C:2EADH         LINE#         1461
  C:2EADH         LINE#         1462
  C:2EB2H         LINE#         1463
  C:2EB7H         LINE#         1464
  C:2EBCH         LINE#         1465
  C:2EBEH         LINE#         1466
  C:2EC4H         LINE#         1467
  C:2ECAH         LINE#         1468
  C:2ECAH         LINE#         1469
  C:2EDAH         LINE#         1470
  C:2EDDH         LINE#         1471
  C:2EDFH         LINE#         1472
  C:2EDFH         LINE#         1473
  C:2EDFH         LINE#         1474
  C:2EE4H         LINE#         1475
  C:2EE9H         LINE#         1476
  C:2EEEH         LINE#         1477
  C:2EF0H         LINE#         1478
  C:2EF6H         LINE#         1479
  C:2EFCH         LINE#         1480
  C:2EFCH         LINE#         1481
  C:2F0CH         LINE#         1482
  C:2F0FH         LINE#         1483
  C:2F11H         LINE#         1484
  C:2F11H         LINE#         1485
  C:2F11H         LINE#         1486
  C:2F16H         LINE#         1487
  C:2F1BH         LINE#         1488
  C:2F20H         LINE#         1489
  C:2F22H         LINE#         1490
  C:2F28H         LINE#         1491
  C:2F2EH         LINE#         1492
  C:2F2EH         LINE#         1493
  C:2F3EH         LINE#         1494
  C:2F41H         LINE#         1495
  C:2F43H         LINE#         1496
  C:2F43H         LINE#         1497
  C:2F43H         LINE#         1498
  C:2F48H         LINE#         1499
  C:2F4DH         LINE#         1500
  C:2F52H         LINE#         1501
  C:2F54H         LINE#         1502
  C:2F5AH         LINE#         1503
  C:2F60H         LINE#         1504
  C:2F60H         LINE#         1505
BL51 BANKED LINKER/LOCATER V6.22                                                      05/27/2019  15:40:45  PAGE 111


  C:2F70H         LINE#         1506
  C:2F73H         LINE#         1507
  C:2F75H         LINE#         1508
  C:2F75H         LINE#         1509
  C:2F75H         LINE#         1510
  C:2F7AH         LINE#         1511
  C:2F7FH         LINE#         1512
  C:2F84H         LINE#         1513
  C:2F86H         LINE#         1514
  C:2F8CH         LINE#         1515
  C:2F92H         LINE#         1516
  C:2F92H         LINE#         1517
  C:2FA2H         LINE#         1518
  C:2FA5H         LINE#         1519
  C:2FA7H         LINE#         1520
  C:2FA7H         LINE#         1521
  C:2FA7H         LINE#         1522
  C:2FACH         LINE#         1523
  C:2FB1H         LINE#         1524
  C:2FB3H         LINE#         1525
  C:2FB3H         LINE#         1526
  C:2FB9H         LINE#         1527
  C:2FBFH         LINE#         1528
  C:2FBFH         LINE#         1529
  C:2FCFH         LINE#         1530
  C:2FD2H         LINE#         1531
  C:2FD4H         LINE#         1532
  C:2FD4H         LINE#         1533
  C:2FD4H         LINE#         1534
  C:2FD9H         LINE#         1535
  C:2FDEH         LINE#         1536
  C:2FE3H         LINE#         1537
  C:2FE5H         LINE#         1538
  C:2FEBH         LINE#         1539
  C:2FF1H         LINE#         1540
  C:2FF1H         LINE#         1541
  C:3001H         LINE#         1542
  C:3004H         LINE#         1543
  C:3006H         LINE#         1544
  C:3006H         LINE#         1545
  C:3006H         LINE#         1546
  C:300BH         LINE#         1547
  C:3010H         LINE#         1548
  C:3015H         LINE#         1549
  C:3017H         LINE#         1550
  C:301DH         LINE#         1551
  C:3023H         LINE#         1552
  C:3023H         LINE#         1553
  C:3033H         LINE#         1554
  C:3036H         LINE#         1555
  C:3038H         LINE#         1556
  C:3038H         LINE#         1557
  C:3038H         LINE#         1558
  C:303DH         LINE#         1559
  C:3042H         LINE#         1560
  C:3047H         LINE#         1561
  C:3049H         LINE#         1562
BL51 BANKED LINKER/LOCATER V6.22                                                      05/27/2019  15:40:45  PAGE 112


  C:304FH         LINE#         1563
  C:3055H         LINE#         1564
  C:3055H         LINE#         1565
  C:3065H         LINE#         1566
  C:3068H         LINE#         1567
  C:306AH         LINE#         1568
  C:306AH         LINE#         1569
  C:306AH         LINE#         1570
  C:306FH         LINE#         1571
  C:3074H         LINE#         1572
  C:3079H         LINE#         1573
  C:307BH         LINE#         1574
  C:3081H         LINE#         1575
  C:3087H         LINE#         1576
  C:3087H         LINE#         1577
  C:3097H         LINE#         1578
  C:309AH         LINE#         1579
  C:309CH         LINE#         1580
  C:309CH         LINE#         1581
  C:309CH         LINE#         1582
  C:30A1H         LINE#         1583
  C:30A6H         LINE#         1584
  C:30ABH         LINE#         1585
  C:30ADH         LINE#         1586
  C:30B3H         LINE#         1587
  C:30B9H         LINE#         1588
  C:30B9H         LINE#         1589
  C:30C9H         LINE#         1590
  C:30CCH         LINE#         1591
  C:30CEH         LINE#         1592
  C:30CEH         LINE#         1593
  C:30CEH         LINE#         1594
  C:30D3H         LINE#         1595
  C:30D8H         LINE#         1596
  C:30DDH         LINE#         1597
  C:30DFH         LINE#         1598
  C:30E5H         LINE#         1599
  C:30EBH         LINE#         1600
  C:30EBH         LINE#         1601
  C:30FBH         LINE#         1602
  C:30FEH         LINE#         1603
  C:3100H         LINE#         1604
  C:3100H         LINE#         1605
  C:3100H         LINE#         1606
  C:3105H         LINE#         1607
  C:310AH         LINE#         1608
  C:310FH         LINE#         1609
  C:3111H         LINE#         1610
  C:3117H         LINE#         1611
  C:311DH         LINE#         1612
  C:311DH         LINE#         1613
  C:312DH         LINE#         1614
  C:3130H         LINE#         1615
  C:3132H         LINE#         1616
  C:3132H         LINE#         1617
  C:3132H         LINE#         1618
  C:3137H         LINE#         1619
BL51 BANKED LINKER/LOCATER V6.22                                                      05/27/2019  15:40:45  PAGE 113


  C:313CH         LINE#         1620
  C:3141H         LINE#         1621
  C:3143H         LINE#         1622
  C:3149H         LINE#         1623
  C:314FH         LINE#         1624
  C:314FH         LINE#         1625
  C:315FH         LINE#         1626
  C:3162H         LINE#         1627
  C:3164H         LINE#         1628
  C:3164H         LINE#         1629
  C:3164H         LINE#         1630
  C:3169H         LINE#         1631
  C:316EH         LINE#         1632
  C:3173H         LINE#         1633
  C:3175H         LINE#         1634
  C:317BH         LINE#         1635
  C:317EH         LINE#         1636
  C:317EH         LINE#         1637
  C:318EH         LINE#         1638
  C:3191H         LINE#         1639
  C:3193H         LINE#         1640
  C:3193H         LINE#         1641
  C:3193H         LINE#         1642
  C:3198H         LINE#         1643
  C:319DH         LINE#         1644
  C:319FH         LINE#         1645
  C:319FH         LINE#         1646
  C:31A5H         LINE#         1647
  C:31A8H         LINE#         1648
  C:31A8H         LINE#         1649
  C:31B8H         LINE#         1650
  C:31BBH         LINE#         1651
  C:31BDH         LINE#         1652
  C:31BDH         LINE#         1653
  C:31BDH         LINE#         1654
  C:31C2H         LINE#         1655
  C:31C7H         LINE#         1656
  C:31CCH         LINE#         1657
  C:31CEH         LINE#         1658
  C:31D4H         LINE#         1659
  C:31D7H         LINE#         1660
  C:31D7H         LINE#         1661
  C:31E7H         LINE#         1662
  C:31EAH         LINE#         1663
  C:31ECH         LINE#         1664
  C:31ECH         LINE#         1665
  C:31ECH         LINE#         1667
  C:31ECH         LINE#         1670
  -------         ENDPROC       BROADCAST_MORNING
  -------         PROC          _WELCOME_MUSIC
  D:0004H         SYMBOL        volume_start
  C:95E7H         LINE#         1672
  C:95E9H         LINE#         1673
  C:95E9H         LINE#         1675
  C:95EEH         LINE#         1676
  C:95F3H         LINE#         1677
  C:95F8H         LINE#         1678
BL51 BANKED LINKER/LOCATER V6.22                                                      05/27/2019  15:40:45  PAGE 114


  C:95FDH         LINE#         1680
  C:9602H         LINE#         1681
  C:9607H         LINE#         1682
  C:9609H         LINE#         1683
  C:960CH         LINE#         1684
  C:960FH         LINE#         1685
  C:9612H         LINE#         1686
  C:9612H         LINE#         1687
  C:9615H         LINE#         1688
  C:9617H         LINE#         1689
  -------         ENDPROC       _WELCOME_MUSIC
  -------         PROC          CHECK_ALARM_TIME
  X:0056H         SYMBOL        str_time
  X:005CH         SYMBOL        str_time_alarm
  X:005FH         SYMBOL        alarm_show_flag
  -------         DO            
  X:0062H         SYMBOL        tmp_year
  D:0002H         SYMBOL        tmp_month
  X:0064H         SYMBOL        tmp_date
  X:0066H         SYMBOL        iWeekDay
  -------         ENDDO         
  C:5202H         LINE#         1690
  C:5202H         LINE#         1693
  C:5202H         LINE#         1695
  C:520BH         LINE#         1696
  C:5218H         LINE#         1697
  C:521FH         LINE#         1698
  C:522AH         LINE#         1700
  C:5234H         LINE#         1701
  C:5234H         LINE#         1702
  C:523BH         LINE#         1703
  C:5245H         LINE#         1704
  C:5245H         LINE#         1705
  C:52D2H         LINE#         1710
  C:52D7H         LINE#         1711
  C:52DFH         LINE#         1712
  C:52E4H         LINE#         1713
  C:52E9H         LINE#         1714
  C:52FBH         LINE#         1715
  C:52FBH         LINE#         1716
  C:5368H         LINE#         1720
  C:5368H         LINE#         1721
  C:536DH         LINE#         1722
  C:5372H         LINE#         1723
  C:537DH         LINE#         1724
  C:5380H         LINE#         1725
  C:5386H         LINE#         1726
  C:5389H         LINE#         1727
  C:538FH         LINE#         1728
  C:538FH         LINE#         1729
  C:539FH         LINE#         1730
  C:53A6H         LINE#         1731
  C:53A6H         LINE#         1732
  C:53A9H         LINE#         1733
  C:53A9H         LINE#         1734
  C:53ABH         LINE#         1735
  C:53ABH         LINE#         1736
BL51 BANKED LINKER/LOCATER V6.22                                                      05/27/2019  15:40:45  PAGE 115


  C:53ABH         LINE#         1737
  C:53AEH         LINE#         1739
  C:53C3H         LINE#         1741
  C:53C3H         LINE#         1742
  C:53CAH         LINE#         1743
  C:53DFH         LINE#         1745
  C:53DFH         LINE#         1747
  C:53E4H         LINE#         1748
  C:53E9H         LINE#         1749
  C:53F8H         LINE#         1750
  C:53FDH         LINE#         1751
  C:5402H         LINE#         1752
  C:540BH         LINE#         1753
  C:540BH         LINE#         1755
  C:543EH         LINE#         1756
  C:543EH         LINE#         1757
  C:5459H         LINE#         1759
  C:5464H         LINE#         1760
  C:5464H         LINE#         1761
  C:547FH         LINE#         1762
  C:5481H         LINE#         1764
  C:5481H         LINE#         1765
  C:549CH         LINE#         1766
  C:549CH         LINE#         1768
  C:549EH         LINE#         1770
  C:549EH         LINE#         1771
  C:54CEH         LINE#         1773
  C:54CEH         LINE#         1774
  C:54D3H         LINE#         1775
  C:54D3H         LINE#         1776
  C:54D6H         LINE#         1777
  C:54D6H         LINE#         1778
  C:54D6H         LINE#         1779
  C:54DCH         LINE#         1780
  C:54DCH         LINE#         1781
  C:54E2H         LINE#         1782
  C:54E7H         LINE#         1783
  C:54ECH         LINE#         1784
  C:54FBH         LINE#         1785
  C:5500H         LINE#         1786
  C:551FH         LINE#         1787
  C:552AH         LINE#         1788
  C:552AH         LINE#         1789
  C:553EH         LINE#         1790
  C:5547H         LINE#         1791
  C:5547H         LINE#         1792
  C:5564H         LINE#         1793
  C:5564H         LINE#         1794
  C:5582H         LINE#         1795
  C:5582H         LINE#         1796
  C:558DH         LINE#         1797
  C:558DH         LINE#         1798
  C:558EH         LINE#         1799
  C:55AFH         LINE#         1800
  C:55AFH         LINE#         1801
  C:55BDH         LINE#         1802
  C:55C8H         LINE#         1803
BL51 BANKED LINKER/LOCATER V6.22                                                      05/27/2019  15:40:45  PAGE 116


  C:55C8H         LINE#         1804
  C:55E3H         LINE#         1805
  C:55E5H         LINE#         1807
  C:55E5H         LINE#         1808
  C:55FDH         LINE#         1809
  C:55FDH         LINE#         1810
  C:55FFH         LINE#         1812
  C:55FFH         LINE#         1813
  C:561DH         LINE#         1814
  C:561DH         LINE#         1815
  C:561DH         LINE#         1816
  C:5622H         LINE#         1817
  C:5622H         LINE#         1818
  C:5622H         LINE#         1820
  C:5622H         LINE#         1822
  C:5622H         LINE#         1823
  C:562BH         LINE#         1824
  -------         ENDPROC       CHECK_ALARM_TIME
  -------         ENDMOD        YUYIN

  -------         MODULE        ALARM
  C:0000H         SYMBOL        _ICE_DUMMY_
  D:0090H         PUBLIC        P1
  D:00A0H         PUBLIC        P2
  D:00B0H         PUBLIC        P3
  C:776FH         PUBLIC        alarm_read_iic
  C:6C1FH         PUBLIC        _alarm_write_iic
  B:0090H.6       PUBLIC        ADD
  B:0090H.5       PUBLIC        SWITCH
  C:45FAH         PUBLIC        alarm_function
  B:0090H.7       PUBLIC        SUB
  B:00B0H.6       PUBLIC        ALARM
  -------         PROC          L?0118
  -------         ENDPROC       L?0118
  -------         PROC          _ALARM_WRITE_IIC
  X:0056H         SYMBOL        str_time_alarm_
  X:0059H         SYMBOL        alarm_show_flag_
  C:6C1FH         LINE#         18
  C:6C25H         LINE#         19
  C:6C25H         LINE#         20
  C:6C31H         LINE#         21
  C:6C38H         LINE#         22
  C:6C4AH         LINE#         23
  C:6C51H         LINE#         24
  C:6C63H         LINE#         25
  C:6C6AH         LINE#         26
  C:6C79H         LINE#         27
  C:6C80H         LINE#         28
  C:6C92H         LINE#         29
  C:6C99H         LINE#         30
  C:6CABH         LINE#         31
  C:6CB2H         LINE#         32
  C:6CC4H         LINE#         33
  C:6CCBH         LINE#         34
  C:6CDDH         LINE#         35
  C:6CE4H         LINE#         36
  C:6CF6H         LINE#         37
BL51 BANKED LINKER/LOCATER V6.22                                                      05/27/2019  15:40:45  PAGE 117


  C:6CFDH         LINE#         38
  C:6D0FH         LINE#         39
  C:6D16H         LINE#         41
  C:6D28H         LINE#         42
  C:6D2FH         LINE#         43
  C:6D41H         LINE#         44
  C:6D48H         LINE#         45
  C:6D5AH         LINE#         46
  C:6D61H         LINE#         47
  C:6D73H         LINE#         48
  C:6D7AH         LINE#         49
  C:6D8CH         LINE#         50
  C:6D93H         LINE#         51
  C:6DA5H         LINE#         52
  C:6DACH         LINE#         53
  C:6DBEH         LINE#         54
  C:6DC5H         LINE#         55
  C:6DD7H         LINE#         56
  C:6DDEH         LINE#         57
  C:6DF0H         LINE#         58
  C:6DF7H         LINE#         59
  C:6E09H         LINE#         60
  -------         ENDPROC       _ALARM_WRITE_IIC
  -------         PROC          ALARM_READ_IIC
  C:776FH         LINE#         63
  C:776FH         LINE#         64
  C:776FH         LINE#         65
  C:7779H         LINE#         66
  C:7780H         LINE#         67
  C:778AH         LINE#         68
  C:7791H         LINE#         69
  C:779BH         LINE#         70
  C:77A2H         LINE#         71
  C:77ACH         LINE#         72
  C:77B3H         LINE#         73
  C:77BDH         LINE#         74
  C:77C4H         LINE#         75
  C:77CEH         LINE#         76
  C:77D5H         LINE#         77
  C:77DFH         LINE#         78
  C:77E6H         LINE#         79
  C:77F0H         LINE#         80
  C:77F7H         LINE#         81
  C:7801H         LINE#         82
  C:7808H         LINE#         84
  C:7812H         LINE#         85
  C:7819H         LINE#         86
  C:7823H         LINE#         87
  C:782AH         LINE#         88
  C:7834H         LINE#         89
  C:783BH         LINE#         90
  C:7845H         LINE#         91
  C:784CH         LINE#         92
  C:7856H         LINE#         93
  C:785DH         LINE#         94
  C:7867H         LINE#         95
  C:786EH         LINE#         96
BL51 BANKED LINKER/LOCATER V6.22                                                      05/27/2019  15:40:45  PAGE 118


  C:7878H         LINE#         97
  C:787FH         LINE#         98
  C:7889H         LINE#         99
  C:7890H         LINE#         100
  C:789AH         LINE#         101
  -------         ENDPROC       ALARM_READ_IIC
  -------         PROC          ALARM_FUNCTION
  C:45FAH         LINE#         104
  C:45FAH         LINE#         105
  C:45FAH         LINE#         106
  C:4600H         LINE#         107
  C:4600H         LINE#         108
  C:4607H         LINE#         109
  C:460DH         LINE#         110
  C:460DH         LINE#         111
  C:460DH         LINE#         112
  C:460DH         LINE#         113
  C:460DH         LINE#         114
  C:460DH         LINE#         115
  C:4613H         LINE#         116
  C:4613H         LINE#         117
  C:461AH         LINE#         118
  C:461DH         LINE#         119
  C:461DH         LINE#         120
  C:4623H         LINE#         121
  C:4627H         LINE#         122
  C:4627H         LINE#         123
  C:4629H         LINE#         124
  C:4632H         LINE#         125
  C:4637H         LINE#         126
  C:463AH         LINE#         127
  C:463DH         LINE#         128
  C:463DH         LINE#         129
  C:463DH         LINE#         130
  C:4648H         LINE#         131
  C:4648H         LINE#         132
  C:4648H         LINE#         133
  C:464BH         LINE#         134
  C:4654H         LINE#         135
  C:4662H         LINE#         136
  C:4662H         LINE#         137
  C:4662H         LINE#         138
  C:4664H         LINE#         139
  C:4664H         LINE#         140
  C:466DH         LINE#         141
  C:4670H         LINE#         142
  C:4679H         LINE#         143
  C:467EH         LINE#         144
  C:4693H         LINE#         145
  C:4696H         LINE#         146
  C:4699H         LINE#         147
  C:4699H         LINE#         148
  C:4699H         LINE#         149
  C:4699H         LINE#         150
  C:4699H         LINE#         152
  C:469FH         LINE#         153
  C:469FH         LINE#         154
BL51 BANKED LINKER/LOCATER V6.22                                                      05/27/2019  15:40:45  PAGE 119


  C:46A6H         LINE#         155
  C:46ACH         LINE#         156
  C:46ACH         LINE#         157
  C:46B2H         LINE#         158
  C:46B5H         LINE#         159
  C:46BCH         LINE#         160
  C:46BCH         LINE#         161
  C:46BEH         LINE#         162
  C:46C1H         LINE#         163
  C:46C4H         LINE#         164
  C:46C4H         LINE#         165
  C:46EAH         LINE#         166
  C:46EAH         LINE#         167
  C:46EAH         LINE#         168
  C:46F3H         LINE#         169
  C:4707H         LINE#         170
  C:4707H         LINE#         171
  C:470BH         LINE#         172
  C:470BH         LINE#         173
  C:470DH         LINE#         174
  C:4710H         LINE#         175
  C:4710H         LINE#         176
  C:4715H         LINE#         177
  C:471EH         LINE#         178
  C:4732H         LINE#         179
  C:4732H         LINE#         180
  C:4737H         LINE#         181
  C:4737H         LINE#         182
  C:4739H         LINE#         183
  C:473CH         LINE#         184
  C:473CH         LINE#         185
  C:4741H         LINE#         186
  C:474AH         LINE#         187
  C:475EH         LINE#         188
  C:475EH         LINE#         189
  C:4763H         LINE#         190
  C:4763H         LINE#         191
  C:4765H         LINE#         192
  C:4768H         LINE#         193
  C:4768H         LINE#         194
  C:476DH         LINE#         195
  C:4776H         LINE#         196
  C:478AH         LINE#         197
  C:478AH         LINE#         198
  C:478FH         LINE#         199
  C:478FH         LINE#         200
  C:4791H         LINE#         201
  C:4794H         LINE#         202
  C:4794H         LINE#         203
  C:4799H         LINE#         204
  C:47A2H         LINE#         205
  C:47B6H         LINE#         206
  C:47B6H         LINE#         207
  C:47BBH         LINE#         208
  C:47BBH         LINE#         209
  C:47BDH         LINE#         210
  C:47BFH         LINE#         211
BL51 BANKED LINKER/LOCATER V6.22                                                      05/27/2019  15:40:45  PAGE 120


  C:47BFH         LINE#         212
  C:47C4H         LINE#         213
  C:47CDH         LINE#         214
  C:47E1H         LINE#         215
  C:47E1H         LINE#         216
  C:47E6H         LINE#         217
  C:47E6H         LINE#         218
  C:47E8H         LINE#         219
  C:47EAH         LINE#         220
  C:47EAH         LINE#         221
  C:47EFH         LINE#         222
  C:47F8H         LINE#         223
  C:480CH         LINE#         224
  C:480CH         LINE#         225
  C:4811H         LINE#         226
  C:4811H         LINE#         227
  C:4816H         LINE#         228
  C:4818H         LINE#         229
  C:4818H         LINE#         230
  C:481DH         LINE#         231
  C:4826H         LINE#         232
  C:4829H         LINE#         233
  C:482BH         LINE#         234
  C:482BH         LINE#         235
  C:482EH         LINE#         236
  C:4831H         LINE#         237
  C:4831H         LINE#         238
  C:4831H         LINE#         239
  C:4831H         LINE#         240
  C:4831H         LINE#         242
  C:4837H         LINE#         243
  C:4837H         LINE#         244
  C:483EH         LINE#         245
  C:4844H         LINE#         246
  C:4844H         LINE#         247
  C:486AH         LINE#         248
  C:486AH         LINE#         249
  C:486AH         LINE#         250
  C:486FH         LINE#         251
  C:4884H         LINE#         252
  C:4896H         LINE#         253
  C:4896H         LINE#         254
  C:4898H         LINE#         255
  C:489BH         LINE#         257
  C:489BH         LINE#         258
  C:489DH         LINE#         259
  C:489DH         LINE#         260
  C:48A0H         LINE#         261
  C:48A0H         LINE#         262
  C:48A5H         LINE#         263
  C:48BAH         LINE#         264
  C:48CEH         LINE#         265
  C:48CEH         LINE#         266
  C:48CEH         LINE#         267
  C:48D1H         LINE#         269
  C:48D1H         LINE#         270
  C:48D1H         LINE#         271
BL51 BANKED LINKER/LOCATER V6.22                                                      05/27/2019  15:40:45  PAGE 121


  C:48D1H         LINE#         272
  C:48D4H         LINE#         273
  C:48D4H         LINE#         274
  C:48D9H         LINE#         275
  C:48EEH         LINE#         276
  C:4902H         LINE#         277
  C:4902H         LINE#         278
  C:4902H         LINE#         279
  C:4905H         LINE#         281
  C:4905H         LINE#         282
  C:4905H         LINE#         283
  C:4905H         LINE#         284
  C:4908H         LINE#         285
  C:4908H         LINE#         286
  C:490DH         LINE#         287
  C:4922H         LINE#         288
  C:4936H         LINE#         289
  C:4936H         LINE#         290
  C:4936H         LINE#         291
  C:4939H         LINE#         293
  C:4939H         LINE#         294
  C:4939H         LINE#         295
  C:4939H         LINE#         296
  C:493CH         LINE#         297
  C:493CH         LINE#         298
  C:4941H         LINE#         299
  C:4956H         LINE#         300
  C:496AH         LINE#         301
  C:496AH         LINE#         302
  C:496AH         LINE#         303
  C:496CH         LINE#         305
  C:496CH         LINE#         306
  C:496CH         LINE#         307
  C:496CH         LINE#         308
  C:496EH         LINE#         309
  C:496EH         LINE#         310
  C:4973H         LINE#         311
  C:4988H         LINE#         312
  C:499CH         LINE#         313
  C:499CH         LINE#         314
  C:499CH         LINE#         315
  C:499EH         LINE#         317
  C:499EH         LINE#         318
  C:499EH         LINE#         319
  C:499EH         LINE#         320
  C:49A0H         LINE#         321
  C:49A0H         LINE#         322
  C:49A5H         LINE#         323
  C:49BAH         LINE#         324
  C:49CEH         LINE#         325
  C:49CEH         LINE#         326
  C:49D1H         LINE#         327
  C:49D4H         LINE#         329
  C:49D4H         LINE#         330
  C:49D7H         LINE#         331
  C:49D7H         LINE#         332
  C:49DAH         LINE#         333
BL51 BANKED LINKER/LOCATER V6.22                                                      05/27/2019  15:40:45  PAGE 122


  C:49DAH         LINE#         334
  C:49DDH         LINE#         335
  C:4A24H         LINE#         336
  C:4A46H         LINE#         337
  C:4A49H         LINE#         338
  C:4A4BH         LINE#         339
  C:4A4BH         LINE#         340
  C:4A4EH         LINE#         341
  C:4A95H         LINE#         342
  C:4AB7H         LINE#         343
  C:4ABAH         LINE#         344
  C:4ABAH         LINE#         345
  C:4ABAH         LINE#         346
  C:4ABDH         LINE#         347
  C:4AE8H         LINE#         348
  C:4AE8H         LINE#         349
  C:4AE8H         LINE#         350
  C:4AEEH         LINE#         351
  C:4AEEH         LINE#         352
  C:4AF5H         LINE#         353
  C:4AFBH         LINE#         354
  C:4AFBH         LINE#         355
  C:4B21H         LINE#         356
  C:4B21H         LINE#         357
  C:4B21H         LINE#         358
  C:4B26H         LINE#         359
  C:4B3BH         LINE#         360
  C:4B4DH         LINE#         361
  C:4B4DH         LINE#         362
  C:4B4FH         LINE#         363
  C:4B52H         LINE#         365
  C:4B52H         LINE#         366
  C:4B54H         LINE#         367
  C:4B54H         LINE#         368
  C:4B57H         LINE#         369
  C:4B57H         LINE#         370
  C:4B5CH         LINE#         371
  C:4B71H         LINE#         372
  C:4B85H         LINE#         373
  C:4B85H         LINE#         374
  C:4B85H         LINE#         375
  C:4B88H         LINE#         377
  C:4B88H         LINE#         378
  C:4B88H         LINE#         379
  C:4B88H         LINE#         380
  C:4B8BH         LINE#         381
  C:4B8BH         LINE#         382
  C:4B90H         LINE#         383
  C:4BA5H         LINE#         384
  C:4BB9H         LINE#         385
  C:4BB9H         LINE#         386
  C:4BB9H         LINE#         387
  C:4BBCH         LINE#         389
  C:4BBCH         LINE#         390
  C:4BBCH         LINE#         391
  C:4BBCH         LINE#         392
  C:4BBFH         LINE#         393
BL51 BANKED LINKER/LOCATER V6.22                                                      05/27/2019  15:40:45  PAGE 123


  C:4BBFH         LINE#         394
  C:4BC4H         LINE#         395
  C:4BD9H         LINE#         396
  C:4BEDH         LINE#         397
  C:4BEDH         LINE#         398
  C:4BEDH         LINE#         399
  C:4BF0H         LINE#         401
  C:4BF0H         LINE#         402
  C:4BF0H         LINE#         403
  C:4BF0H         LINE#         404
  C:4BF3H         LINE#         405
  C:4BF3H         LINE#         406
  C:4BF8H         LINE#         407
  C:4C0DH         LINE#         408
  C:4C21H         LINE#         409
  C:4C21H         LINE#         410
  C:4C21H         LINE#         411
  C:4C23H         LINE#         413
  C:4C23H         LINE#         414
  C:4C23H         LINE#         415
  C:4C23H         LINE#         416
  C:4C25H         LINE#         417
  C:4C25H         LINE#         418
  C:4C2AH         LINE#         419
  C:4C3FH         LINE#         420
  C:4C53H         LINE#         421
  C:4C53H         LINE#         422
  C:4C53H         LINE#         423
  C:4C55H         LINE#         425
  C:4C55H         LINE#         426
  C:4C55H         LINE#         427
  C:4C55H         LINE#         428
  C:4C57H         LINE#         429
  C:4C57H         LINE#         430
  C:4C5CH         LINE#         431
  C:4C71H         LINE#         432
  C:4C85H         LINE#         433
  C:4C85H         LINE#         434
  C:4C88H         LINE#         435
  C:4C8BH         LINE#         437
  C:4C8BH         LINE#         438
  C:4C8EH         LINE#         439
  C:4C8EH         LINE#         440
  C:4C91H         LINE#         441
  C:4C91H         LINE#         442
  C:4C94H         LINE#         443
  C:4CDAH         LINE#         444
  C:4CFCH         LINE#         445
  C:4CFFH         LINE#         446
  C:4D01H         LINE#         447
  C:4D01H         LINE#         448
  C:4D04H         LINE#         449
  C:4D4AH         LINE#         450
  C:4D6CH         LINE#         451
  C:4D6FH         LINE#         452
  C:4D6FH         LINE#         453
  C:4D6FH         LINE#         454
BL51 BANKED LINKER/LOCATER V6.22                                                      05/27/2019  15:40:45  PAGE 124


  C:4D72H         LINE#         455
  C:4D9DH         LINE#         456
  C:4D9DH         LINE#         457
  C:4D9DH         LINE#         458
  C:4DA0H         LINE#         459
  C:4DA0H         LINE#         460
  C:4DA0H         LINE#         461
  -------         ENDPROC       ALARM_FUNCTION
  -------         ENDMOD        ALARM

  -------         MODULE        SWITCH_SCREEN
  C:0000H         SYMBOL        _ICE_DUMMY_
  D:0090H         PUBLIC        P1
  D:00A0H         PUBLIC        P2
  D:00B0H         PUBLIC        P3
  C:79D2H         PUBLIC        show_time_screen
  B:0090H.6       PUBLIC        ADD
  B:0090H.7       PUBLIC        SUB
  C:6FFAH         PUBLIC        switch_screen
  -------         PROC          SHOW_TIME_SCREEN
  C:79D2H         LINE#         15
  C:79D2H         LINE#         16
  C:79D2H         LINE#         17
  C:79E9H         LINE#         18
  C:79E9H         LINE#         19
  C:79E9H         LINE#         20
  C:79F9H         LINE#         21
  C:7A0FH         LINE#         22
  C:7A18H         LINE#         23
  C:7A1BH         LINE#         24
  C:7A26H         LINE#         25
  C:7A29H         LINE#         26
  C:7A3FH         LINE#         27
  C:7A4DH         LINE#         28
  C:7A6EH         LINE#         29
  C:7A6EH         LINE#         30
  C:7A6EH         LINE#         31
  C:7A7EH         LINE#         32
  C:7A94H         LINE#         33
  C:7A94H         LINE#         34
  C:7A94H         LINE#         35
  C:7A97H         LINE#         36
  C:7A97H         LINE#         37
  C:7A99H         LINE#         38
  C:7AA9H         LINE#         39
  C:7ABFH         LINE#         40
  C:7ACDH         LINE#         41
  C:7AD4H         LINE#         42
  C:7AD7H         LINE#         43
  C:7ADEH         LINE#         44
  C:7AE1H         LINE#         45
  C:7AE8H         LINE#         46
  C:7AFEH         LINE#         47
  C:7AFEH         LINE#         48
  C:7AFEH         LINE#         49
  C:7AFEH         LINE#         50
  -------         ENDPROC       SHOW_TIME_SCREEN
BL51 BANKED LINKER/LOCATER V6.22                                                      05/27/2019  15:40:45  PAGE 125


  -------         PROC          SWITCH_SCREEN
  C:6FFAH         LINE#         52
  C:6FFAH         LINE#         53
  C:6FFAH         LINE#         54
  C:7000H         LINE#         55
  C:7000H         LINE#         56
  C:7007H         LINE#         57
  C:700DH         LINE#         58
  C:700DH         LINE#         59
  C:7013H         LINE#         60
  C:7017H         LINE#         61
  C:7017H         LINE#         62
  C:7019H         LINE#         63
  C:7019H         LINE#         64
  C:701CH         LINE#         66
  C:702DH         LINE#         67
  C:702DH         LINE#         68
  C:702DH         LINE#         69
  C:7030H         LINE#         70
  C:7046H         LINE#         71
  C:704FH         LINE#         72
  C:7052H         LINE#         73
  C:705DH         LINE#         74
  C:705FH         LINE#         75
  C:705FH         LINE#         76
  C:7062H         LINE#         77
  C:7078H         LINE#         78
  C:707AH         LINE#         79
  C:707AH         LINE#         80
  C:707DH         LINE#         81
  C:7093H         LINE#         85
  C:70A1H         LINE#         86
  C:70A8H         LINE#         87
  C:70ABH         LINE#         88
  C:70B2H         LINE#         89
  C:70B5H         LINE#         90
  C:70BCH         LINE#         91
  C:70D2H         LINE#         92
  C:70D2H         LINE#         93
  C:70D2H         LINE#         94
  C:70D2H         LINE#         95
  C:70D2H         LINE#         96
  C:70D8H         LINE#         97
  C:70D8H         LINE#         98
  C:70DFH         LINE#         99
  C:70E5H         LINE#         100
  C:70E5H         LINE#         101
  C:70EBH         LINE#         102
  C:70EBH         LINE#         103
  C:70EEH         LINE#         104
  C:70EEH         LINE#         105
  C:70F4H         LINE#         106
  C:70F7H         LINE#         107
  C:7108H         LINE#         108
  C:7108H         LINE#         109
  C:7108H         LINE#         110
  C:710BH         LINE#         111
BL51 BANKED LINKER/LOCATER V6.22                                                      05/27/2019  15:40:45  PAGE 126


  C:7121H         LINE#         112
  C:712AH         LINE#         113
  C:712DH         LINE#         114
  C:7138H         LINE#         115
  C:713AH         LINE#         116
  C:713AH         LINE#         117
  C:713DH         LINE#         118
  C:7153H         LINE#         119
  C:7155H         LINE#         120
  C:7155H         LINE#         121
  C:7158H         LINE#         122
  C:716EH         LINE#         126
  C:717CH         LINE#         127
  C:7183H         LINE#         128
  C:7186H         LINE#         129
  C:718DH         LINE#         130
  C:7190H         LINE#         131
  C:7197H         LINE#         132
  C:71ADH         LINE#         133
  C:71ADH         LINE#         134
  C:71ADH         LINE#         135
  C:71ADH         LINE#         136
  C:71ADH         LINE#         137
  -------         ENDPROC       SWITCH_SCREEN
  -------         ENDMOD        SWITCH_SCREEN

  -------         MODULE        MAIN2233
  C:0000H         SYMBOL        _ICE_DUMMY_
  D:0090H         PUBLIC        P1
  D:00A0H         PUBLIC        P2
  D:00B0H         PUBLIC        P3
  B:00A0H.5       PUBLIC        LED1
  D:0022H         PUBLIC        str2
  C:96D3H         PUBLIC        UARTInterrupt
  B:00A8H.4       PUBLIC        ES
  B:0098H.0       PUBLIC        RI
  D:003BH         PUBLIC        Rxnum
  B:0098H.1       PUBLIC        TI
  C:9706H         PUBLIC        _Send_Str
  D:003CH         PUBLIC        alarm_wifi_state
  C:9D6CH         PUBLIC        Clear_Buffer
  D:003EH         PUBLIC        wifi_data
  D:0099H         PUBLIC        SBUF
  D:0098H         PUBLIC        SCON
  D:0089H         PUBLIC        TMOD
  C:9C7AH         PUBLIC        Clear_Rxbuff
  C:9752H         PUBLIC        wifi_init
  D:008DH         PUBLIC        TH1
  X:00AAH         PUBLIC        clinetid
  D:008BH         PUBLIC        TL1
  D:0046H         PUBLIC        strx
  C:9CF2H         PUBLIC        InitUART
  C:96ACH         PUBLIC        _string_to_uchar
  B:0088H.6       PUBLIC        TR1
  X:00ABH         PUBLIC        getflag
  C:9D5DH         PUBLIC        _UART_send_byte
  C:31EDH         PUBLIC        Get_Clinet
BL51 BANKED LINKER/LOCATER V6.22                                                      05/27/2019  15:40:45  PAGE 127


  D:0049H         PUBLIC        Rxbuff
  C:98BAH         PUBLIC        _delayms
  C:871AH         PUBLIC        ESP8266_SERVER
  -------         PROC          INITUART
  C:9CF2H         LINE#         37
  C:9CF2H         LINE#         38
  C:9CF2H         LINE#         39
  C:9CF5H         LINE#         40
  C:9CF8H         LINE#         41
  C:9CFEH         LINE#         42
  C:9D00H         LINE#         43
  C:9D02H         LINE#         44
  -------         ENDPROC       INITUART
  -------         PROC          CLEAR_BUFFER
  C:9D6CH         LINE#         46
  C:9D6CH         LINE#         47
  C:9D6CH         LINE#         48
  C:9D6FH         LINE#         49
  -------         ENDPROC       CLEAR_BUFFER
  -------         PROC          CLEAR_RXBUFF
  C:9C7AH         LINE#         51
  C:9C7AH         LINE#         52
  C:9C7AH         LINE#         53
  C:9C81H         LINE#         54
  C:9C81H         LINE#         55
  C:9C88H         LINE#         56
  C:9C8AH         LINE#         57
  C:9C8CH         LINE#         58
  C:9C8FH         LINE#         59
  -------         ENDPROC       CLEAR_RXBUFF
  C:98B6H         SYMBOL        L?0192
  -------         PROC          L?0191
  -------         ENDPROC       L?0191
  C:98B6H         SYMBOL        L?0192
  -------         PROC          _DELAYMS
  D:0006H         SYMBOL        x
  -------         DO            
  D:0004H         SYMBOL        i
  -------         ENDDO         
  C:98BAH         LINE#         61
  C:98BAH         LINE#         62
  C:98BAH         LINE#         64
  C:98C4H         LINE#         65
  C:98D8H         LINE#         66
  -------         ENDPROC       _DELAYMS
  -------         PROC          _UART_SEND_BYTE
  D:0007H         SYMBOL        dat
  C:9D5DH         LINE#         68
  C:9D5DH         LINE#         69
  C:9D5DH         LINE#         70
  C:9D5FH         LINE#         71
  C:9D62H         LINE#         72
  C:9D64H         LINE#         73
  -------         ENDPROC       _UART_SEND_BYTE
  C:9700H         SYMBOL        L?0194
  -------         PROC          L?0193
  -------         ENDPROC       L?0193
BL51 BANKED LINKER/LOCATER V6.22                                                      05/27/2019  15:40:45  PAGE 128


  C:9700H         SYMBOL        L?0194
  -------         PROC          _SEND_STR
  X:00A2H         SYMBOL        buf
  C:9706H         LINE#         75
  C:970CH         LINE#         76
  C:970CH         LINE#         77
  C:9717H         LINE#         78
  C:9717H         LINE#         79
  C:9728H         LINE#         80
  C:972AH         LINE#         81
  -------         ENDPROC       _SEND_STR
  -------         PROC          ESP8266_SERVER
  C:871AH         LINE#         82
  C:871AH         LINE#         83
  C:871AH         LINE#         85
  C:871AH         LINE#         86
  C:871AH         LINE#         87
  C:871CH         LINE#         88
  C:8724H         LINE#         89
  C:8724H         LINE#         90
  C:8727H         LINE#         91
  C:872AH         LINE#         92
  C:8745H         LINE#         93
  C:8747H         LINE#         95
  C:874AH         LINE#         96
  C:874DH         LINE#         97
  C:8750H         LINE#         98
  C:8753H         LINE#         99
  C:875CH         LINE#         100
  C:875FH         LINE#         101
  C:8768H         LINE#         102
  C:876BH         LINE#         103
  C:8774H         LINE#         104
  C:8777H         LINE#         106
  C:877AH         LINE#         107
  C:8783H         LINE#         108
  C:8783H         LINE#         109
  C:8785H         LINE#         111
  C:878DH         LINE#         112
  C:878DH         LINE#         113
  C:8790H         LINE#         114
  C:8793H         LINE#         115
  C:87AEH         LINE#         116
  C:87B0H         LINE#         117
  C:87B3H         LINE#         118
  C:87B5H         LINE#         119
  -------         ENDPROC       ESP8266_SERVER
  C:96A6H         SYMBOL        L?0190
  -------         PROC          L?0189
  -------         ENDPROC       L?0189
  C:96A6H         SYMBOL        L?0190
  -------         PROC          _STRING_TO_UCHAR
  X:00A5H         SYMBOL        in
  -------         DO            
  D:0007H         SYMBOL        res
  D:0006H         SYMBOL        i
  -------         ENDDO         
BL51 BANKED LINKER/LOCATER V6.22                                                      05/27/2019  15:40:45  PAGE 129


  C:96ACH         LINE#         121
  C:96B2H         LINE#         122
  C:96B2H         LINE#         123
  C:96B4H         LINE#         124
  C:96B5H         LINE#         125
  C:96C6H         LINE#         126
  C:96C6H         LINE#         127
  C:96CFH         LINE#         128
  C:96D0H         LINE#         129
  C:96D2H         LINE#         130
  C:96D2H         LINE#         131
  -------         ENDPROC       _STRING_TO_UCHAR
  -------         PROC          GET_CLINET
  -------         DO            
  X:00A8H         SYMBOL        i
  X:00A9H         SYMBOL        t
  D:0008H         SYMBOL        wifi_data_temp
  D:0010H         SYMBOL        sleep_data
  -------         ENDDO         
  C:31EDH         LINE#         133
  C:31EDH         LINE#         134
  C:31EDH         LINE#         135
  C:31F4H         LINE#         138
  C:31F8H         LINE#         139
  C:31FBH         LINE#         140
  C:3216H         LINE#         141
  C:321CH         LINE#         142
  C:321CH         LINE#         143
  C:3222H         LINE#         145
  C:3222H         LINE#         147
  C:322BH         LINE#         148
  C:322BH         LINE#         150
  C:322EH         LINE#         151
  C:323EH         LINE#         152
  C:3259H         LINE#         153
  C:3266H         LINE#         154
  C:3266H         LINE#         155
  C:326AH         LINE#         156
  C:3290H         LINE#         157
  C:3298H         LINE#         159
  C:329DH         LINE#         160
  C:32C4H         LINE#         161
  C:32CCH         LINE#         163
  C:32D1H         LINE#         164
  C:32F8H         LINE#         165
  C:3300H         LINE#         167
  C:3305H         LINE#         168
  C:332CH         LINE#         169
  C:3334H         LINE#         171
  C:3339H         LINE#         172
  C:3360H         LINE#         173
  C:3368H         LINE#         175
  C:336DH         LINE#         176
  C:3394H         LINE#         177
  C:339CH         LINE#         178
  C:33B2H         LINE#         180
  C:33BBH         LINE#         181
BL51 BANKED LINKER/LOCATER V6.22                                                      05/27/2019  15:40:45  PAGE 130


  C:33C4H         LINE#         182
  C:33C4H         LINE#         186
  C:33E8H         LINE#         187
  C:33E8H         LINE#         188
  C:33EDH         LINE#         189
  C:33F3H         LINE#         190
  C:33F3H         LINE#         191
  C:33F3H         LINE#         192
  C:33F5H         LINE#         193
  C:3418H         LINE#         194
  C:3418H         LINE#         195
  C:341DH         LINE#         196
  C:3425H         LINE#         197
  C:342EH         LINE#         198
  C:3438H         LINE#         199
  C:3438H         LINE#         200
  C:3458H         LINE#         201
  C:3458H         LINE#         202
  C:3463H         LINE#         203
  C:3463H         LINE#         204
  C:3467H         LINE#         205
  C:348EH         LINE#         206
  C:3496H         LINE#         208
  C:349BH         LINE#         209
  C:34C2H         LINE#         210
  C:34CAH         LINE#         211
  C:34D3H         LINE#         212
  C:34DCH         LINE#         213
  C:34E6H         LINE#         214
  C:34F0H         LINE#         215
  C:34F0H         LINE#         216
  C:34F0H         LINE#         217
  C:3510H         LINE#         218
  C:3510H         LINE#         219
  C:351BH         LINE#         220
  C:351BH         LINE#         221
  C:351FH         LINE#         222
  C:3546H         LINE#         223
  C:354EH         LINE#         224
  C:3553H         LINE#         225
  C:357AH         LINE#         226
  C:3582H         LINE#         227
  C:358BH         LINE#         228
  C:3594H         LINE#         229
  C:359EH         LINE#         230
  C:35A8H         LINE#         231
  C:35A8H         LINE#         232
  C:35A8H         LINE#         233
  C:35CCH         LINE#         234
  C:35CCH         LINE#         235
  C:35D4H         LINE#         236
  C:35DDH         LINE#         237
  C:35E0H         LINE#         238
  C:35EFH         LINE#         239
  C:35EFH         LINE#         240
  C:35FCH         LINE#         241
  C:3604H         LINE#         242
BL51 BANKED LINKER/LOCATER V6.22                                                      05/27/2019  15:40:45  PAGE 131


  C:3604H         LINE#         243
  C:3628H         LINE#         244
  C:3628H         LINE#         245
  C:362AH         LINE#         246
  C:3632H         LINE#         247
  C:363BH         LINE#         248
  C:364AH         LINE#         249
  C:364AH         LINE#         250
  C:3656H         LINE#         251
  C:365EH         LINE#         252
  C:3664H         LINE#         253
  C:3668H         LINE#         254
  C:3668H         LINE#         256
  C:368CH         LINE#         257
  C:368CH         LINE#         258
  C:368FH         LINE#         259
  C:3697H         LINE#         260
  C:36A0H         LINE#         261
  C:36AFH         LINE#         262
  C:36AFH         LINE#         263
  C:36BCH         LINE#         264
  C:36C4H         LINE#         265
  C:36C4H         LINE#         266
  C:36E8H         LINE#         267
  C:36E8H         LINE#         268
  C:36EAH         LINE#         269
  C:36F2H         LINE#         270
  C:36FBH         LINE#         272
  C:370AH         LINE#         273
  C:370AH         LINE#         274
  C:3716H         LINE#         275
  C:371EH         LINE#         276
  C:3724H         LINE#         277
  C:3728H         LINE#         278
  C:3728H         LINE#         280
  C:3748H         LINE#         281
  C:3748H         LINE#         282
  C:374EH         LINE#         283
  C:374EH         LINE#         284
  C:3752H         LINE#         285
  C:3778H         LINE#         286
  C:3780H         LINE#         288
  C:3785H         LINE#         289
  C:37ACH         LINE#         290
  C:37B4H         LINE#         291
  C:37B4H         LINE#         292
  C:37C7H         LINE#         293
  C:37D0H         LINE#         294
  C:37D9H         LINE#         295
  C:37D9H         LINE#         297
  C:37F9H         LINE#         298
  C:37F9H         LINE#         299
  C:37FFH         LINE#         300
  C:37FFH         LINE#         301
  C:3803H         LINE#         302
  C:3829H         LINE#         303
  C:3831H         LINE#         305
BL51 BANKED LINKER/LOCATER V6.22                                                      05/27/2019  15:40:45  PAGE 132


  C:3836H         LINE#         306
  C:385DH         LINE#         307
  C:3865H         LINE#         308
  C:3865H         LINE#         309
  C:3878H         LINE#         310
  C:3881H         LINE#         311
  C:388AH         LINE#         312
  C:388AH         LINE#         314
  C:389DH         LINE#         315
  C:389DH         LINE#         316
  C:38A7H         LINE#         317
  C:38A7H         LINE#         318
  C:38ACH         LINE#         319
  C:38D2H         LINE#         320
  C:38E0H         LINE#         321
  C:38E5H         LINE#         322
  C:390CH         LINE#         323
  C:391AH         LINE#         324
  C:391AH         LINE#         325
  C:3923H         LINE#         326
  C:392CH         LINE#         327
  C:3936H         LINE#         328
  C:3940H         LINE#         329
  C:3940H         LINE#         331
  C:394FH         LINE#         332
  C:394FH         LINE#         333
  C:3958H         LINE#         334
  C:3961H         LINE#         335
  C:396DH         LINE#         336
  C:396DH         LINE#         338
  C:3980H         LINE#         339
  C:3980H         LINE#         340
  C:3988H         LINE#         341
  C:3991H         LINE#         342
  C:39A0H         LINE#         343
  C:39A0H         LINE#         344
  C:39A5H         LINE#         345
  C:39A9H         LINE#         346
  C:39ACH         LINE#         347
  C:39ACH         LINE#         348
  C:39B8H         LINE#         349
  C:39BAH         LINE#         350
  C:39BAH         LINE#         351
  C:39BCH         LINE#         352
  C:39CCH         LINE#         353
  C:39CCH         LINE#         354
  C:39D2H         LINE#         355
  C:39D6H         LINE#         356
  C:39D8H         LINE#         357
  C:39DCH         LINE#         358
  C:39DCH         LINE#         359
  C:39E2H         LINE#         360
  C:39E6H         LINE#         361
  C:39E9H         LINE#         362
  C:39E9H         LINE#         363
  C:39F5H         LINE#         364
  C:39F7H         LINE#         365
BL51 BANKED LINKER/LOCATER V6.22                                                      05/27/2019  15:40:45  PAGE 133


  C:39F7H         LINE#         366
  C:39F7H         LINE#         367
  C:3A01H         LINE#         368
  C:3A0BH         LINE#         369
  C:3A0BH         LINE#         372
  C:3A1BH         LINE#         373
  C:3A1BH         LINE#         374
  C:3A25H         LINE#         375
  C:3A25H         LINE#         376
  C:3A2BH         LINE#         377
  C:3A2DH         LINE#         378
  C:3A31H         LINE#         379
  C:3A31H         LINE#         380
  C:3A37H         LINE#         381
  C:3A39H         LINE#         382
  C:3A3DH         LINE#         383
  C:3A3DH         LINE#         384
  C:3A43H         LINE#         385
  C:3A43H         LINE#         386
  C:3A4CH         LINE#         387
  C:3A55H         LINE#         388
  C:3A5FH         LINE#         389
  C:3A5FH         LINE#         392
  C:3A83H         LINE#         393
  C:3A83H         LINE#         394
  C:3A88H         LINE#         395
  C:3A8CH         LINE#         396
  C:3A95H         LINE#         397
  C:3A9EH         LINE#         398
  C:3AA8H         LINE#         399
  C:3AAFH         LINE#         400
  C:3AB1H         LINE#         401
  C:3AD5H         LINE#         402
  C:3AD5H         LINE#         403
  C:3AD9H         LINE#         404
  C:3ADDH         LINE#         405
  C:3AE5H         LINE#         406
  C:3AEEH         LINE#         407
  C:3AF8H         LINE#         408
  C:3B02H         LINE#         409
  C:3B02H         LINE#         411
  C:3B26H         LINE#         412
  C:3B26H         LINE#         413
  C:3B2BH         LINE#         414
  C:3B2FH         LINE#         415
  C:3B35H         LINE#         416
  C:3B35H         LINE#         417
  C:3B35H         LINE#         418
  C:3B35H         LINE#         419
  C:3B37H         LINE#         420
  C:3B5BH         LINE#         421
  C:3B5BH         LINE#         422
  C:3B5FH         LINE#         423
  C:3B63H         LINE#         424
  C:3B6BH         LINE#         425
  C:3B74H         LINE#         426
  C:3B7EH         LINE#         427
BL51 BANKED LINKER/LOCATER V6.22                                                      05/27/2019  15:40:45  PAGE 134


  C:3B88H         LINE#         428
  C:3B88H         LINE#         430
  C:3B9BH         LINE#         431
  C:3B9BH         LINE#         432
  C:3BA5H         LINE#         433
  C:3BA5H         LINE#         434
  C:3BABH         LINE#         435
  C:3BADH         LINE#         436
  C:3BB1H         LINE#         437
  C:3BB1H         LINE#         438
  C:3BB7H         LINE#         439
  C:3BB9H         LINE#         440
  C:3BBDH         LINE#         441
  C:3BBDH         LINE#         442
  C:3BC3H         LINE#         443
  C:3BC5H         LINE#         444
  C:3BC9H         LINE#         445
  C:3BC9H         LINE#         446
  C:3BCFH         LINE#         447
  C:3BD1H         LINE#         448
  C:3BD5H         LINE#         449
  C:3BD5H         LINE#         450
  C:3BDBH         LINE#         451
  C:3BDDH         LINE#         452
  C:3BE1H         LINE#         453
  C:3BE1H         LINE#         454
  C:3BE7H         LINE#         455
  C:3BE9H         LINE#         456
  C:3BEDH         LINE#         457
  C:3BEDH         LINE#         458
  C:3BF3H         LINE#         459
  C:3BF5H         LINE#         460
  C:3BF9H         LINE#         461
  C:3BF9H         LINE#         462
  C:3BFFH         LINE#         463
  C:3C01H         LINE#         464
  C:3C05H         LINE#         465
  C:3C05H         LINE#         466
  C:3C0BH         LINE#         467
  C:3C0BH         LINE#         468
  C:3C14H         LINE#         469
  C:3C1DH         LINE#         470
  C:3C27H         LINE#         471
  C:3C27H         LINE#         474
  C:3C3AH         LINE#         475
  C:3C3AH         LINE#         476
  C:3C42H         LINE#         477
  C:3C4BH         LINE#         480
  C:3C51H         LINE#         481
  C:3C51H         LINE#         482
  C:3C5FH         LINE#         483
  C:3C5FH         LINE#         484
  C:3C73H         LINE#         485
  C:3C73H         LINE#         486
  C:3C83H         LINE#         487
  C:3C85H         LINE#         488
  C:3C89H         LINE#         489
BL51 BANKED LINKER/LOCATER V6.22                                                      05/27/2019  15:40:45  PAGE 135


  C:3C89H         LINE#         490
  C:3C98H         LINE#         491
  C:3C98H         LINE#         492
  C:3CA0H         LINE#         493
  C:3CA0H         LINE#         494
  C:3CA4H         LINE#         495
  C:3CA4H         LINE#         496
  C:3CB2H         LINE#         497
  C:3CB2H         LINE#         498
  C:3CBEH         LINE#         499
  C:3CC6H         LINE#         500
  C:3CC6H         LINE#         501
  C:3CC6H         LINE#         503
  C:3CD9H         LINE#         504
  C:3CD9H         LINE#         505
  C:3CE1H         LINE#         506
  C:3CEAH         LINE#         507
  C:3CF0H         LINE#         508
  C:3CF0H         LINE#         509
  C:3CFEH         LINE#         510
  C:3CFEH         LINE#         511
  C:3D12H         LINE#         512
  C:3D12H         LINE#         513
  C:3D22H         LINE#         514
  C:3D24H         LINE#         515
  C:3D28H         LINE#         516
  C:3D28H         LINE#         517
  C:3D37H         LINE#         518
  C:3D37H         LINE#         519
  C:3D3FH         LINE#         520
  C:3D3FH         LINE#         521
  C:3D43H         LINE#         522
  C:3D43H         LINE#         523
  C:3D51H         LINE#         524
  C:3D51H         LINE#         525
  C:3D5DH         LINE#         526
  C:3D65H         LINE#         527
  C:3D65H         LINE#         528
  C:3D65H         LINE#         530
  C:3D89H         LINE#         531
  C:3D89H         LINE#         532
  C:3D8BH         LINE#         533
  C:3D8BH         LINE#         534
  C:3D8BH         LINE#         535
  C:3D8BH         LINE#         536
  C:3D8DH         LINE#         537
  C:3DB1H         LINE#         538
  C:3DB1H         LINE#         539
  C:3DB3H         LINE#         540
  C:3DBBH         LINE#         541
  C:3DC4H         LINE#         542
  C:3DCEH         LINE#         543
  C:3DCEH         LINE#         544
  C:3DE1H         LINE#         545
  C:3DE4H         LINE#         546
  C:3DE7H         LINE#         547
  C:3DF0H         LINE#         548
BL51 BANKED LINKER/LOCATER V6.22                                                      05/27/2019  15:40:45  PAGE 136


  C:3DF3H         LINE#         549
  C:3DF5H         LINE#         550
  C:3DF7H         LINE#         552
  C:3DF7H         LINE#         554
  -------         ENDPROC       GET_CLINET
  -------         PROC          WIFI_INIT
  C:9752H         LINE#         557
  C:9752H         LINE#         558
  C:9752H         LINE#         560
  C:9759H         LINE#         561
  C:975CH         LINE#         562
  C:9763H         LINE#         563
  C:976CH         LINE#         564
  -------         ENDPROC       WIFI_INIT
  -------         PROC          UARTINTERRUPT
  C:96D3H         LINE#         566
  C:96DEH         LINE#         568
  C:96E1H         LINE#         569
  C:96E1H         LINE#         570
  C:96EBH         LINE#         571
  C:96EDH         LINE#         572
  C:96F4H         LINE#         573
  C:96F7H         LINE#         574
  C:96F7H         LINE#         575
  -------         ENDPROC       UARTINTERRUPT
  -------         ENDMOD        MAIN2233

  -------         MODULE        ?C?COPY
  C:65F8H         PUBLIC        ?C?COPY
  -------         ENDMOD        ?C?COPY

  -------         MODULE        ?C?CLDPTR
  C:661EH         PUBLIC        ?C?CLDPTR
  -------         ENDMOD        ?C?CLDPTR

  -------         MODULE        ?C?CLDOPTR
  C:6637H         PUBLIC        ?C?CLDOPTR
  -------         ENDMOD        ?C?CLDOPTR

  -------         MODULE        ?C?CILDPTR
  C:6664H         PUBLIC        ?C?CILDPTR
  -------         ENDMOD        ?C?CILDPTR

  -------         MODULE        ?C?CILDOPTR
  C:6686H         PUBLIC        ?C?CILDOPTR
  -------         ENDMOD        ?C?CILDOPTR

  -------         MODULE        ?C?CSTPTR
  C:66B9H         PUBLIC        ?C?CSTPTR
  -------         ENDMOD        ?C?CSTPTR

  -------         MODULE        ?C?CSTOPTR
  C:66CBH         PUBLIC        ?C?CSTOPTR
  -------         ENDMOD        ?C?CSTOPTR

  -------         MODULE        ?C?IMUL
  C:66EDH         PUBLIC        ?C?IMUL
BL51 BANKED LINKER/LOCATER V6.22                                                      05/27/2019  15:40:45  PAGE 137


  -------         ENDMOD        ?C?IMUL

  -------         MODULE        ?C?UIDIV
  C:66FFH         PUBLIC        ?C?UIDIV
  -------         ENDMOD        ?C?UIDIV

  -------         MODULE        ?C?IILDX
  C:6754H         PUBLIC        ?C?IILDX
  -------         ENDMOD        ?C?IILDX

  -------         MODULE        ?C?OFFXADD
  C:676AH         PUBLIC        ?C?OFFXADD
  -------         ENDMOD        ?C?OFFXADD

  -------         MODULE        ?C?PLDXDATA
  C:6776H         PUBLIC        ?C?PLDXDATA
  -------         ENDMOD        ?C?PLDXDATA

  -------         MODULE        ?C?PLDIXDATA
  C:677FH         PUBLIC        ?C?PLDIXDATA
  -------         ENDMOD        ?C?PLDIXDATA

  -------         MODULE        ?C?PSTXDATA
  C:6796H         PUBLIC        ?C?PSTXDATA
  -------         ENDMOD        ?C?PSTXDATA

  -------         MODULE        ?C?CCASE
  C:679FH         PUBLIC        ?C?CCASE
  -------         ENDMOD        ?C?CCASE

  -------         MODULE        STRSTR
  X:0080H         PUBLIC        ?_strstr?BYTE
  C:85BCH         PUBLIC        _strstr
  -------         ENDMOD        STRSTR

*** WARNING L16: UNCALLED SEGMENT, IGNORED FOR OVERLAY PROCESS
    SEGMENT: ?PR?CLEAN_BIG_SET?HB

*** WARNING L16: UNCALLED SEGMENT, IGNORED FOR OVERLAY PROCESS
    SEGMENT: ?PR?_HB_SHOW_BIG_TEMP?HB

*** WARNING L16: UNCALLED SEGMENT, IGNORED FOR OVERLAY PROCESS
    SEGMENT: ?PR?SHOW_DATE?HB

*** WARNING L16: UNCALLED SEGMENT, IGNORED FOR OVERLAY PROCESS
    SEGMENT: ?PR?HB_SHOW_BIG_WEEK?HB

*** WARNING L16: UNCALLED SEGMENT, IGNORED FOR OVERLAY PROCESS
    SEGMENT: ?PR?CLEAN_FESTIVEL?HB

*** WARNING L16: UNCALLED SEGMENT, IGNORED FOR OVERLAY PROCESS
    SEGMENT: ?PR?GET_CLINET?MAIN2233

*** WARNING L16: UNCALLED SEGMENT, IGNORED FOR OVERLAY PROCESS
    SEGMENT: ?PR?WIFI_INIT?MAIN2233

Program Size: data=107.1 xdata=172 code=40307
BL51 BANKED LINKER/LOCATER V6.22                                                      05/27/2019  15:40:45  PAGE 138


LINK/LOCATE RUN COMPLETE.  7 WARNING(S),  0 ERROR(S)
